
./obj/bandwidth:     file format elf64-x86-64


Disassembly of section .init:

00000000004005e8 <_init>:
  4005e8:	48 83 ec 08          	sub    $0x8,%rsp
  4005ec:	48 8b 05 05 0a 20 00 	mov    0x200a05(%rip),%rax        # 600ff8 <_DYNAMIC+0x1e0>
  4005f3:	48 85 c0             	test   %rax,%rax
  4005f6:	74 05                	je     4005fd <_init+0x15>
  4005f8:	e8 93 00 00 00       	callq  400690 <sqrt@plt+0x10>
  4005fd:	48 83 c4 08          	add    $0x8,%rsp
  400601:	c3                   	retq   

Disassembly of section .plt:

0000000000400610 <__stack_chk_fail@plt-0x10>:
  400610:	ff 35 f2 09 20 00    	pushq  0x2009f2(%rip)        # 601008 <_GLOBAL_OFFSET_TABLE_+0x8>
  400616:	ff 25 f4 09 20 00    	jmpq   *0x2009f4(%rip)        # 601010 <_GLOBAL_OFFSET_TABLE_+0x10>
  40061c:	0f 1f 40 00          	nopl   0x0(%rax)

0000000000400620 <__stack_chk_fail@plt>:
  400620:	ff 25 f2 09 20 00    	jmpq   *0x2009f2(%rip)        # 601018 <_GLOBAL_OFFSET_TABLE_+0x18>
  400626:	68 00 00 00 00       	pushq  $0x0
  40062b:	e9 e0 ff ff ff       	jmpq   400610 <_init+0x28>

0000000000400630 <printf@plt>:
  400630:	ff 25 ea 09 20 00    	jmpq   *0x2009ea(%rip)        # 601020 <_GLOBAL_OFFSET_TABLE_+0x20>
  400636:	68 01 00 00 00       	pushq  $0x1
  40063b:	e9 d0 ff ff ff       	jmpq   400610 <_init+0x28>

0000000000400640 <memset@plt>:
  400640:	ff 25 e2 09 20 00    	jmpq   *0x2009e2(%rip)        # 601028 <_GLOBAL_OFFSET_TABLE_+0x28>
  400646:	68 02 00 00 00       	pushq  $0x2
  40064b:	e9 c0 ff ff ff       	jmpq   400610 <_init+0x28>

0000000000400650 <__libc_start_main@plt>:
  400650:	ff 25 da 09 20 00    	jmpq   *0x2009da(%rip)        # 601030 <_GLOBAL_OFFSET_TABLE_+0x30>
  400656:	68 03 00 00 00       	pushq  $0x3
  40065b:	e9 b0 ff ff ff       	jmpq   400610 <_init+0x28>

0000000000400660 <memcpy@plt>:
  400660:	ff 25 d2 09 20 00    	jmpq   *0x2009d2(%rip)        # 601038 <_GLOBAL_OFFSET_TABLE_+0x38>
  400666:	68 04 00 00 00       	pushq  $0x4
  40066b:	e9 a0 ff ff ff       	jmpq   400610 <_init+0x28>

0000000000400670 <malloc@plt>:
  400670:	ff 25 ca 09 20 00    	jmpq   *0x2009ca(%rip)        # 601040 <_GLOBAL_OFFSET_TABLE_+0x40>
  400676:	68 05 00 00 00       	pushq  $0x5
  40067b:	e9 90 ff ff ff       	jmpq   400610 <_init+0x28>

0000000000400680 <sqrt@plt>:
  400680:	ff 25 c2 09 20 00    	jmpq   *0x2009c2(%rip)        # 601048 <_GLOBAL_OFFSET_TABLE_+0x48>
  400686:	68 06 00 00 00       	pushq  $0x6
  40068b:	e9 80 ff ff ff       	jmpq   400610 <_init+0x28>

Disassembly of section .plt.got:

0000000000400690 <.plt.got>:
  400690:	ff 25 62 09 20 00    	jmpq   *0x200962(%rip)        # 600ff8 <_DYNAMIC+0x1e0>
  400696:	66 90                	xchg   %ax,%ax

Disassembly of section .text:

00000000004006a0 <_start>:
  4006a0:	31 ed                	xor    %ebp,%ebp
  4006a2:	49 89 d1             	mov    %rdx,%r9
  4006a5:	5e                   	pop    %rsi
  4006a6:	48 89 e2             	mov    %rsp,%rdx
  4006a9:	48 83 e4 f0          	and    $0xfffffffffffffff0,%rsp
  4006ad:	50                   	push   %rax
  4006ae:	54                   	push   %rsp
  4006af:	49 c7 c0 30 0c 40 00 	mov    $0x400c30,%r8
  4006b6:	48 c7 c1 c0 0b 40 00 	mov    $0x400bc0,%rcx
  4006bd:	48 c7 c7 96 07 40 00 	mov    $0x400796,%rdi
  4006c4:	e8 87 ff ff ff       	callq  400650 <__libc_start_main@plt>
  4006c9:	f4                   	hlt    
  4006ca:	66 0f 1f 44 00 00    	nopw   0x0(%rax,%rax,1)

00000000004006d0 <deregister_tm_clones>:
  4006d0:	b8 67 10 60 00       	mov    $0x601067,%eax
  4006d5:	55                   	push   %rbp
  4006d6:	48 2d 60 10 60 00    	sub    $0x601060,%rax
  4006dc:	48 83 f8 0e          	cmp    $0xe,%rax
  4006e0:	48 89 e5             	mov    %rsp,%rbp
  4006e3:	76 1b                	jbe    400700 <deregister_tm_clones+0x30>
  4006e5:	b8 00 00 00 00       	mov    $0x0,%eax
  4006ea:	48 85 c0             	test   %rax,%rax
  4006ed:	74 11                	je     400700 <deregister_tm_clones+0x30>
  4006ef:	5d                   	pop    %rbp
  4006f0:	bf 60 10 60 00       	mov    $0x601060,%edi
  4006f5:	ff e0                	jmpq   *%rax
  4006f7:	66 0f 1f 84 00 00 00 	nopw   0x0(%rax,%rax,1)
  4006fe:	00 00 
  400700:	5d                   	pop    %rbp
  400701:	c3                   	retq   
  400702:	0f 1f 40 00          	nopl   0x0(%rax)
  400706:	66 2e 0f 1f 84 00 00 	nopw   %cs:0x0(%rax,%rax,1)
  40070d:	00 00 00 

0000000000400710 <register_tm_clones>:
  400710:	be 60 10 60 00       	mov    $0x601060,%esi
  400715:	55                   	push   %rbp
  400716:	48 81 ee 60 10 60 00 	sub    $0x601060,%rsi
  40071d:	48 c1 fe 03          	sar    $0x3,%rsi
  400721:	48 89 e5             	mov    %rsp,%rbp
  400724:	48 89 f0             	mov    %rsi,%rax
  400727:	48 c1 e8 3f          	shr    $0x3f,%rax
  40072b:	48 01 c6             	add    %rax,%rsi
  40072e:	48 d1 fe             	sar    %rsi
  400731:	74 15                	je     400748 <register_tm_clones+0x38>
  400733:	b8 00 00 00 00       	mov    $0x0,%eax
  400738:	48 85 c0             	test   %rax,%rax
  40073b:	74 0b                	je     400748 <register_tm_clones+0x38>
  40073d:	5d                   	pop    %rbp
  40073e:	bf 60 10 60 00       	mov    $0x601060,%edi
  400743:	ff e0                	jmpq   *%rax
  400745:	0f 1f 00             	nopl   (%rax)
  400748:	5d                   	pop    %rbp
  400749:	c3                   	retq   
  40074a:	66 0f 1f 44 00 00    	nopw   0x0(%rax,%rax,1)

0000000000400750 <__do_global_dtors_aux>:
  400750:	80 3d 09 09 20 00 00 	cmpb   $0x0,0x200909(%rip)        # 601060 <__TMC_END__>
  400757:	75 11                	jne    40076a <__do_global_dtors_aux+0x1a>
  400759:	55                   	push   %rbp
  40075a:	48 89 e5             	mov    %rsp,%rbp
  40075d:	e8 6e ff ff ff       	callq  4006d0 <deregister_tm_clones>
  400762:	5d                   	pop    %rbp
  400763:	c6 05 f6 08 20 00 01 	movb   $0x1,0x2008f6(%rip)        # 601060 <__TMC_END__>
  40076a:	f3 c3                	repz retq 
  40076c:	0f 1f 40 00          	nopl   0x0(%rax)

0000000000400770 <frame_dummy>:
  400770:	bf 10 0e 60 00       	mov    $0x600e10,%edi
  400775:	48 83 3f 00          	cmpq   $0x0,(%rdi)
  400779:	75 05                	jne    400780 <frame_dummy+0x10>
  40077b:	eb 93                	jmp    400710 <register_tm_clones>
  40077d:	0f 1f 00             	nopl   (%rax)
  400780:	b8 00 00 00 00       	mov    $0x0,%eax
  400785:	48 85 c0             	test   %rax,%rax
  400788:	74 f1                	je     40077b <frame_dummy+0xb>
  40078a:	55                   	push   %rbp
  40078b:	48 89 e5             	mov    %rsp,%rbp
  40078e:	ff d0                	callq  *%rax
  400790:	5d                   	pop    %rbp
  400791:	e9 7a ff ff ff       	jmpq   400710 <register_tm_clones>

0000000000400796 <main>:
  400796:	55                   	push   %rbp
  400797:	48 89 e5             	mov    %rsp,%rbp
  40079a:	41 55                	push   %r13
  40079c:	41 54                	push   %r12
  40079e:	53                   	push   %rbx
  40079f:	48 81 ec f8 00 00 00 	sub    $0xf8,%rsp
  4007a6:	89 bd fc fe ff ff    	mov    %edi,-0x104(%rbp)
  4007ac:	48 89 b5 f0 fe ff ff 	mov    %rsi,-0x110(%rbp)
  4007b3:	64 48 8b 04 25 28 00 	mov    %fs:0x28,%rax
  4007ba:	00 00 
  4007bc:	48 89 45 d8          	mov    %rax,-0x28(%rbp)
  4007c0:	31 c0                	xor    %eax,%eax
  4007c2:	bf 00 00 20 03       	mov    $0x3200000,%edi
  4007c7:	e8 a4 fe ff ff       	callq  400670 <malloc@plt>
  4007cc:	49 89 c4             	mov    %rax,%r12
  4007cf:	bf 00 00 20 03       	mov    $0x3200000,%edi
  4007d4:	e8 97 fe ff ff       	callq  400670 <malloc@plt>
  4007d9:	49 89 c5             	mov    %rax,%r13
  4007dc:	66 0f ef c0          	pxor   %xmm0,%xmm0
  4007e0:	f3 0f 11 85 00 ff ff 	movss  %xmm0,-0x100(%rbp)
  4007e7:	ff 
  4007e8:	66 0f ef c0          	pxor   %xmm0,%xmm0
  4007ec:	f3 0f 11 85 04 ff ff 	movss  %xmm0,-0xfc(%rbp)
  4007f3:	ff 
  4007f4:	66 0f ef c0          	pxor   %xmm0,%xmm0
  4007f8:	f3 0f 11 85 08 ff ff 	movss  %xmm0,-0xf8(%rbp)
  4007ff:	ff 
  400800:	66 0f ef c0          	pxor   %xmm0,%xmm0
  400804:	f3 0f 11 85 0c ff ff 	movss  %xmm0,-0xf4(%rbp)
  40080b:	ff 
  40080c:	c7 85 10 ff ff ff 00 	movl   $0x0,-0xf0(%rbp)
  400813:	00 00 00 
  400816:	e9 e3 01 00 00       	jmpq   4009fe <main+0x268>
  40081b:	0f a2                	cpuid  
  40081d:	0f 31                	rdtsc  
  40081f:	89 d7                	mov    %edx,%edi
  400821:	89 c6                	mov    %eax,%esi
  400823:	89 bd 18 ff ff ff    	mov    %edi,-0xe8(%rbp)
  400829:	89 b5 1c ff ff ff    	mov    %esi,-0xe4(%rbp)
  40082f:	ba 00 00 20 03       	mov    $0x3200000,%edx
  400834:	be 00 00 00 00       	mov    $0x0,%esi
  400839:	4c 89 e7             	mov    %r12,%rdi
  40083c:	e8 ff fd ff ff       	callq  400640 <memset@plt>
  400841:	0f 01 f9             	rdtscp 
  400844:	89 d7                	mov    %edx,%edi
  400846:	89 c6                	mov    %eax,%esi
  400848:	0f a2                	cpuid  
  40084a:	89 bd 20 ff ff ff    	mov    %edi,-0xe0(%rbp)
  400850:	89 b5 24 ff ff ff    	mov    %esi,-0xdc(%rbp)
  400856:	8b 85 20 ff ff ff    	mov    -0xe0(%rbp),%eax
  40085c:	48 c1 e0 20          	shl    $0x20,%rax
  400860:	48 89 c2             	mov    %rax,%rdx
  400863:	8b 85 24 ff ff ff    	mov    -0xdc(%rbp),%eax
  400869:	48 09 c2             	or     %rax,%rdx
  40086c:	8b 85 18 ff ff ff    	mov    -0xe8(%rbp),%eax
  400872:	48 c1 e0 20          	shl    $0x20,%rax
  400876:	48 89 c1             	mov    %rax,%rcx
  400879:	8b 85 1c ff ff ff    	mov    -0xe4(%rbp),%eax
  40087f:	48 09 c8             	or     %rcx,%rax
  400882:	48 29 c2             	sub    %rax,%rdx
  400885:	48 89 d0             	mov    %rdx,%rax
  400888:	48 89 85 28 ff ff ff 	mov    %rax,-0xd8(%rbp)
  40088f:	83 bd 10 ff ff ff 00 	cmpl   $0x0,-0xf0(%rbp)
  400896:	7e 6f                	jle    400907 <main+0x171>
  400898:	48 8b 85 28 ff ff ff 	mov    -0xd8(%rbp),%rax
  40089f:	48 85 c0             	test   %rax,%rax
  4008a2:	78 0b                	js     4008af <main+0x119>
  4008a4:	66 0f ef c0          	pxor   %xmm0,%xmm0
  4008a8:	f3 48 0f 2a c0       	cvtsi2ss %rax,%xmm0
  4008ad:	eb 19                	jmp    4008c8 <main+0x132>
  4008af:	48 89 c2             	mov    %rax,%rdx
  4008b2:	48 d1 ea             	shr    %rdx
  4008b5:	83 e0 01             	and    $0x1,%eax
  4008b8:	48 09 c2             	or     %rax,%rdx
  4008bb:	66 0f ef c0          	pxor   %xmm0,%xmm0
  4008bf:	f3 48 0f 2a c2       	cvtsi2ss %rdx,%xmm0
  4008c4:	f3 0f 58 c0          	addss  %xmm0,%xmm0
  4008c8:	f3 0f 10 0d e8 03 00 	movss  0x3e8(%rip),%xmm1        # 400cb8 <_IO_stdin_used+0x78>
  4008cf:	00 
  4008d0:	f3 0f 5e c8          	divss  %xmm0,%xmm1
  4008d4:	0f 28 c1             	movaps %xmm1,%xmm0
  4008d7:	8b 85 10 ff ff ff    	mov    -0xf0(%rbp),%eax
  4008dd:	48 98                	cltq   
  4008df:	f3 0f 11 44 85 80    	movss  %xmm0,-0x80(%rbp,%rax,4)
  4008e5:	8b 85 10 ff ff ff    	mov    -0xf0(%rbp),%eax
  4008eb:	48 98                	cltq   
  4008ed:	f3 0f 10 44 85 80    	movss  -0x80(%rbp,%rax,4),%xmm0
  4008f3:	f3 0f 10 8d 0c ff ff 	movss  -0xf4(%rbp),%xmm1
  4008fa:	ff 
  4008fb:	f3 0f 58 c1          	addss  %xmm1,%xmm0
  4008ff:	f3 0f 11 85 0c ff ff 	movss  %xmm0,-0xf4(%rbp)
  400906:	ff 
  400907:	0f a2                	cpuid  
  400909:	0f 31                	rdtsc  
  40090b:	89 d7                	mov    %edx,%edi
  40090d:	89 c6                	mov    %eax,%esi
  40090f:	89 bd 18 ff ff ff    	mov    %edi,-0xe8(%rbp)
  400915:	89 b5 1c ff ff ff    	mov    %esi,-0xe4(%rbp)
  40091b:	ba 00 00 20 03       	mov    $0x3200000,%edx
  400920:	4c 89 e6             	mov    %r12,%rsi
  400923:	4c 89 ef             	mov    %r13,%rdi
  400926:	e8 35 fd ff ff       	callq  400660 <memcpy@plt>
  40092b:	0f 01 f9             	rdtscp 
  40092e:	89 d7                	mov    %edx,%edi
  400930:	89 c6                	mov    %eax,%esi
  400932:	0f a2                	cpuid  
  400934:	89 bd 20 ff ff ff    	mov    %edi,-0xe0(%rbp)
  40093a:	89 b5 24 ff ff ff    	mov    %esi,-0xdc(%rbp)
  400940:	8b 85 20 ff ff ff    	mov    -0xe0(%rbp),%eax
  400946:	48 c1 e0 20          	shl    $0x20,%rax
  40094a:	48 89 c2             	mov    %rax,%rdx
  40094d:	8b 85 24 ff ff ff    	mov    -0xdc(%rbp),%eax
  400953:	48 09 c2             	or     %rax,%rdx
  400956:	8b 85 18 ff ff ff    	mov    -0xe8(%rbp),%eax
  40095c:	48 c1 e0 20          	shl    $0x20,%rax
  400960:	48 89 c1             	mov    %rax,%rcx
  400963:	8b 85 1c ff ff ff    	mov    -0xe4(%rbp),%eax
  400969:	48 09 c8             	or     %rcx,%rax
  40096c:	48 29 c2             	sub    %rax,%rdx
  40096f:	48 89 d0             	mov    %rdx,%rax
  400972:	48 89 85 28 ff ff ff 	mov    %rax,-0xd8(%rbp)
  400979:	83 bd 10 ff ff ff 00 	cmpl   $0x0,-0xf0(%rbp)
  400980:	7e 75                	jle    4009f7 <main+0x261>
  400982:	48 8b 85 28 ff ff ff 	mov    -0xd8(%rbp),%rax
  400989:	48 85 c0             	test   %rax,%rax
  40098c:	78 0b                	js     400999 <main+0x203>
  40098e:	66 0f ef c0          	pxor   %xmm0,%xmm0
  400992:	f3 48 0f 2a c0       	cvtsi2ss %rax,%xmm0
  400997:	eb 19                	jmp    4009b2 <main+0x21c>
  400999:	48 89 c2             	mov    %rax,%rdx
  40099c:	48 d1 ea             	shr    %rdx
  40099f:	83 e0 01             	and    $0x1,%eax
  4009a2:	48 09 c2             	or     %rax,%rdx
  4009a5:	66 0f ef c0          	pxor   %xmm0,%xmm0
  4009a9:	f3 48 0f 2a c2       	cvtsi2ss %rdx,%xmm0
  4009ae:	f3 0f 58 c0          	addss  %xmm0,%xmm0
  4009b2:	f3 0f 10 0d fe 02 00 	movss  0x2fe(%rip),%xmm1        # 400cb8 <_IO_stdin_used+0x78>
  4009b9:	00 
  4009ba:	f3 0f 5e c8          	divss  %xmm0,%xmm1
  4009be:	0f 28 c1             	movaps %xmm1,%xmm0
  4009c1:	8b 85 10 ff ff ff    	mov    -0xf0(%rbp),%eax
  4009c7:	48 98                	cltq   
  4009c9:	f3 0f 11 84 85 30 ff 	movss  %xmm0,-0xd0(%rbp,%rax,4)
  4009d0:	ff ff 
  4009d2:	8b 85 10 ff ff ff    	mov    -0xf0(%rbp),%eax
  4009d8:	48 98                	cltq   
  4009da:	f3 0f 10 84 85 30 ff 	movss  -0xd0(%rbp,%rax,4),%xmm0
  4009e1:	ff ff 
  4009e3:	f3 0f 10 8d 08 ff ff 	movss  -0xf8(%rbp),%xmm1
  4009ea:	ff 
  4009eb:	f3 0f 58 c1          	addss  %xmm1,%xmm0
  4009ef:	f3 0f 11 85 08 ff ff 	movss  %xmm0,-0xf8(%rbp)
  4009f6:	ff 
  4009f7:	83 85 10 ff ff ff 01 	addl   $0x1,-0xf0(%rbp)
  4009fe:	83 bd 10 ff ff ff 13 	cmpl   $0x13,-0xf0(%rbp)
  400a05:	0f 8e 10 fe ff ff    	jle    40081b <main+0x85>
  400a0b:	f3 0f 10 85 08 ff ff 	movss  -0xf8(%rbp),%xmm0
  400a12:	ff 
  400a13:	f3 0f 10 0d a1 02 00 	movss  0x2a1(%rip),%xmm1        # 400cbc <_IO_stdin_used+0x7c>
  400a1a:	00 
  400a1b:	f3 0f 5e c1          	divss  %xmm1,%xmm0
  400a1f:	f3 0f 11 85 08 ff ff 	movss  %xmm0,-0xf8(%rbp)
  400a26:	ff 
  400a27:	f3 0f 10 85 0c ff ff 	movss  -0xf4(%rbp),%xmm0
  400a2e:	ff 
  400a2f:	f3 0f 10 0d 85 02 00 	movss  0x285(%rip),%xmm1        # 400cbc <_IO_stdin_used+0x7c>
  400a36:	00 
  400a37:	f3 0f 5e c1          	divss  %xmm1,%xmm0
  400a3b:	f3 0f 11 85 0c ff ff 	movss  %xmm0,-0xf4(%rbp)
  400a42:	ff 
  400a43:	c7 85 14 ff ff ff 01 	movl   $0x1,-0xec(%rbp)
  400a4a:	00 00 00 
  400a4d:	e9 9b 00 00 00       	jmpq   400aed <main+0x357>
  400a52:	8b 85 14 ff ff ff    	mov    -0xec(%rbp),%eax
  400a58:	48 98                	cltq   
  400a5a:	f3 0f 10 84 85 30 ff 	movss  -0xd0(%rbp,%rax,4),%xmm0
  400a61:	ff ff 
  400a63:	0f 28 c8             	movaps %xmm0,%xmm1
  400a66:	f3 0f 5c 8d 08 ff ff 	subss  -0xf8(%rbp),%xmm1
  400a6d:	ff 
  400a6e:	8b 85 14 ff ff ff    	mov    -0xec(%rbp),%eax
  400a74:	48 98                	cltq   
  400a76:	f3 0f 10 84 85 30 ff 	movss  -0xd0(%rbp,%rax,4),%xmm0
  400a7d:	ff ff 
  400a7f:	f3 0f 5c 85 08 ff ff 	subss  -0xf8(%rbp),%xmm0
  400a86:	ff 
  400a87:	f3 0f 59 c1          	mulss  %xmm1,%xmm0
  400a8b:	f3 0f 10 8d 00 ff ff 	movss  -0x100(%rbp),%xmm1
  400a92:	ff 
  400a93:	f3 0f 58 c1          	addss  %xmm1,%xmm0
  400a97:	f3 0f 11 85 00 ff ff 	movss  %xmm0,-0x100(%rbp)
  400a9e:	ff 
  400a9f:	8b 85 14 ff ff ff    	mov    -0xec(%rbp),%eax
  400aa5:	48 98                	cltq   
  400aa7:	f3 0f 10 44 85 80    	movss  -0x80(%rbp,%rax,4),%xmm0
  400aad:	0f 28 c8             	movaps %xmm0,%xmm1
  400ab0:	f3 0f 5c 8d 0c ff ff 	subss  -0xf4(%rbp),%xmm1
  400ab7:	ff 
  400ab8:	8b 85 14 ff ff ff    	mov    -0xec(%rbp),%eax
  400abe:	48 98                	cltq   
  400ac0:	f3 0f 10 44 85 80    	movss  -0x80(%rbp,%rax,4),%xmm0
  400ac6:	f3 0f 5c 85 0c ff ff 	subss  -0xf4(%rbp),%xmm0
  400acd:	ff 
  400ace:	f3 0f 59 c1          	mulss  %xmm1,%xmm0
  400ad2:	f3 0f 10 8d 04 ff ff 	movss  -0xfc(%rbp),%xmm1
  400ad9:	ff 
  400ada:	f3 0f 58 c1          	addss  %xmm1,%xmm0
  400ade:	f3 0f 11 85 04 ff ff 	movss  %xmm0,-0xfc(%rbp)
  400ae5:	ff 
  400ae6:	83 85 14 ff ff ff 01 	addl   $0x1,-0xec(%rbp)
  400aed:	83 bd 14 ff ff ff 13 	cmpl   $0x13,-0xec(%rbp)
  400af4:	0f 8e 58 ff ff ff    	jle    400a52 <main+0x2bc>
  400afa:	f3 0f 10 85 00 ff ff 	movss  -0x100(%rbp),%xmm0
  400b01:	ff 
  400b02:	f3 0f 10 0d b2 01 00 	movss  0x1b2(%rip),%xmm1        # 400cbc <_IO_stdin_used+0x7c>
  400b09:	00 
  400b0a:	f3 0f 5e c1          	divss  %xmm1,%xmm0
  400b0e:	f3 0f 11 85 00 ff ff 	movss  %xmm0,-0x100(%rbp)
  400b15:	ff 
  400b16:	f3 0f 10 85 04 ff ff 	movss  -0xfc(%rbp),%xmm0
  400b1d:	ff 
  400b1e:	f3 0f 10 0d 96 01 00 	movss  0x196(%rip),%xmm1        # 400cbc <_IO_stdin_used+0x7c>
  400b25:	00 
  400b26:	f3 0f 5e c1          	divss  %xmm1,%xmm0
  400b2a:	f3 0f 11 85 04 ff ff 	movss  %xmm0,-0xfc(%rbp)
  400b31:	ff 
  400b32:	f3 0f 5a 85 04 ff ff 	cvtss2sd -0xfc(%rbp),%xmm0
  400b39:	ff 
  400b3a:	e8 41 fb ff ff       	callq  400680 <sqrt@plt>
  400b3f:	66 0f 28 c8          	movapd %xmm0,%xmm1
  400b43:	f3 0f 5a 85 0c ff ff 	cvtss2sd -0xf4(%rbp),%xmm0
  400b4a:	ff 
  400b4b:	be 13 00 00 00       	mov    $0x13,%esi
  400b50:	bf 48 0c 40 00       	mov    $0x400c48,%edi
  400b55:	b8 02 00 00 00       	mov    $0x2,%eax
  400b5a:	e8 d1 fa ff ff       	callq  400630 <printf@plt>
  400b5f:	f3 0f 5a 85 00 ff ff 	cvtss2sd -0x100(%rbp),%xmm0
  400b66:	ff 
  400b67:	e8 14 fb ff ff       	callq  400680 <sqrt@plt>
  400b6c:	66 0f 28 c8          	movapd %xmm0,%xmm1
  400b70:	f3 0f 5a 85 08 ff ff 	cvtss2sd -0xf8(%rbp),%xmm0
  400b77:	ff 
  400b78:	be 13 00 00 00       	mov    $0x13,%esi
  400b7d:	bf 80 0c 40 00       	mov    $0x400c80,%edi
  400b82:	b8 02 00 00 00       	mov    $0x2,%eax
  400b87:	e8 a4 fa ff ff       	callq  400630 <printf@plt>
  400b8c:	b8 00 00 00 00       	mov    $0x0,%eax
  400b91:	48 8b 5d d8          	mov    -0x28(%rbp),%rbx
  400b95:	64 48 33 1c 25 28 00 	xor    %fs:0x28,%rbx
  400b9c:	00 00 
  400b9e:	74 05                	je     400ba5 <main+0x40f>
  400ba0:	e8 7b fa ff ff       	callq  400620 <__stack_chk_fail@plt>
  400ba5:	48 81 c4 f8 00 00 00 	add    $0xf8,%rsp
  400bac:	5b                   	pop    %rbx
  400bad:	41 5c                	pop    %r12
  400baf:	41 5d                	pop    %r13
  400bb1:	5d                   	pop    %rbp
  400bb2:	c3                   	retq   
  400bb3:	66 2e 0f 1f 84 00 00 	nopw   %cs:0x0(%rax,%rax,1)
  400bba:	00 00 00 
  400bbd:	0f 1f 00             	nopl   (%rax)

0000000000400bc0 <__libc_csu_init>:
  400bc0:	41 57                	push   %r15
  400bc2:	41 56                	push   %r14
  400bc4:	41 89 ff             	mov    %edi,%r15d
  400bc7:	41 55                	push   %r13
  400bc9:	41 54                	push   %r12
  400bcb:	4c 8d 25 2e 02 20 00 	lea    0x20022e(%rip),%r12        # 600e00 <__frame_dummy_init_array_entry>
  400bd2:	55                   	push   %rbp
  400bd3:	48 8d 2d 2e 02 20 00 	lea    0x20022e(%rip),%rbp        # 600e08 <__init_array_end>
  400bda:	53                   	push   %rbx
  400bdb:	49 89 f6             	mov    %rsi,%r14
  400bde:	49 89 d5             	mov    %rdx,%r13
  400be1:	4c 29 e5             	sub    %r12,%rbp
  400be4:	48 83 ec 08          	sub    $0x8,%rsp
  400be8:	48 c1 fd 03          	sar    $0x3,%rbp
  400bec:	e8 f7 f9 ff ff       	callq  4005e8 <_init>
  400bf1:	48 85 ed             	test   %rbp,%rbp
  400bf4:	74 20                	je     400c16 <__libc_csu_init+0x56>
  400bf6:	31 db                	xor    %ebx,%ebx
  400bf8:	0f 1f 84 00 00 00 00 	nopl   0x0(%rax,%rax,1)
  400bff:	00 
  400c00:	4c 89 ea             	mov    %r13,%rdx
  400c03:	4c 89 f6             	mov    %r14,%rsi
  400c06:	44 89 ff             	mov    %r15d,%edi
  400c09:	41 ff 14 dc          	callq  *(%r12,%rbx,8)
  400c0d:	48 83 c3 01          	add    $0x1,%rbx
  400c11:	48 39 eb             	cmp    %rbp,%rbx
  400c14:	75 ea                	jne    400c00 <__libc_csu_init+0x40>
  400c16:	48 83 c4 08          	add    $0x8,%rsp
  400c1a:	5b                   	pop    %rbx
  400c1b:	5d                   	pop    %rbp
  400c1c:	41 5c                	pop    %r12
  400c1e:	41 5d                	pop    %r13
  400c20:	41 5e                	pop    %r14
  400c22:	41 5f                	pop    %r15
  400c24:	c3                   	retq   
  400c25:	90                   	nop
  400c26:	66 2e 0f 1f 84 00 00 	nopw   %cs:0x0(%rax,%rax,1)
  400c2d:	00 00 00 

0000000000400c30 <__libc_csu_fini>:
  400c30:	f3 c3                	repz retq 

Disassembly of section .fini:

0000000000400c34 <_fini>:
  400c34:	48 83 ec 08          	sub    $0x8,%rsp
  400c38:	48 83 c4 08          	add    $0x8,%rsp
  400c3c:	c3                   	retq   
