
./obj/context_thread:     file format elf64-x86-64


Disassembly of section .init:

0000000000400758 <_init>:
  400758:	48 83 ec 08          	sub    $0x8,%rsp
  40075c:	48 8b 05 95 18 20 00 	mov    0x201895(%rip),%rax        # 601ff8 <_DYNAMIC+0x1f0>
  400763:	48 85 c0             	test   %rax,%rax
  400766:	74 05                	je     40076d <_init+0x15>
  400768:	e8 e3 00 00 00       	callq  400850 <sqrt@plt+0x10>
  40076d:	48 83 c4 08          	add    $0x8,%rsp
  400771:	c3                   	retq   

Disassembly of section .plt:

0000000000400780 <pthread_create@plt-0x10>:
  400780:	ff 35 82 18 20 00    	pushq  0x201882(%rip)        # 602008 <_GLOBAL_OFFSET_TABLE_+0x8>
  400786:	ff 25 84 18 20 00    	jmpq   *0x201884(%rip)        # 602010 <_GLOBAL_OFFSET_TABLE_+0x10>
  40078c:	0f 1f 40 00          	nopl   0x0(%rax)

0000000000400790 <pthread_create@plt>:
  400790:	ff 25 82 18 20 00    	jmpq   *0x201882(%rip)        # 602018 <_GLOBAL_OFFSET_TABLE_+0x18>
  400796:	68 00 00 00 00       	pushq  $0x0
  40079b:	e9 e0 ff ff ff       	jmpq   400780 <_init+0x28>

00000000004007a0 <write@plt>:
  4007a0:	ff 25 7a 18 20 00    	jmpq   *0x20187a(%rip)        # 602020 <_GLOBAL_OFFSET_TABLE_+0x20>
  4007a6:	68 01 00 00 00       	pushq  $0x1
  4007ab:	e9 d0 ff ff ff       	jmpq   400780 <_init+0x28>

00000000004007b0 <__stack_chk_fail@plt>:
  4007b0:	ff 25 72 18 20 00    	jmpq   *0x201872(%rip)        # 602028 <_GLOBAL_OFFSET_TABLE_+0x28>
  4007b6:	68 02 00 00 00       	pushq  $0x2
  4007bb:	e9 c0 ff ff ff       	jmpq   400780 <_init+0x28>

00000000004007c0 <printf@plt>:
  4007c0:	ff 25 6a 18 20 00    	jmpq   *0x20186a(%rip)        # 602030 <_GLOBAL_OFFSET_TABLE_+0x30>
  4007c6:	68 03 00 00 00       	pushq  $0x3
  4007cb:	e9 b0 ff ff ff       	jmpq   400780 <_init+0x28>

00000000004007d0 <pipe@plt>:
  4007d0:	ff 25 62 18 20 00    	jmpq   *0x201862(%rip)        # 602038 <_GLOBAL_OFFSET_TABLE_+0x38>
  4007d6:	68 04 00 00 00       	pushq  $0x4
  4007db:	e9 a0 ff ff ff       	jmpq   400780 <_init+0x28>

00000000004007e0 <read@plt>:
  4007e0:	ff 25 5a 18 20 00    	jmpq   *0x20185a(%rip)        # 602040 <_GLOBAL_OFFSET_TABLE_+0x40>
  4007e6:	68 05 00 00 00       	pushq  $0x5
  4007eb:	e9 90 ff ff ff       	jmpq   400780 <_init+0x28>

00000000004007f0 <__libc_start_main@plt>:
  4007f0:	ff 25 52 18 20 00    	jmpq   *0x201852(%rip)        # 602048 <_GLOBAL_OFFSET_TABLE_+0x48>
  4007f6:	68 06 00 00 00       	pushq  $0x6
  4007fb:	e9 80 ff ff ff       	jmpq   400780 <_init+0x28>

0000000000400800 <perror@plt>:
  400800:	ff 25 4a 18 20 00    	jmpq   *0x20184a(%rip)        # 602050 <_GLOBAL_OFFSET_TABLE_+0x50>
  400806:	68 07 00 00 00       	pushq  $0x7
  40080b:	e9 70 ff ff ff       	jmpq   400780 <_init+0x28>

0000000000400810 <pthread_join@plt>:
  400810:	ff 25 42 18 20 00    	jmpq   *0x201842(%rip)        # 602058 <_GLOBAL_OFFSET_TABLE_+0x58>
  400816:	68 08 00 00 00       	pushq  $0x8
  40081b:	e9 60 ff ff ff       	jmpq   400780 <_init+0x28>

0000000000400820 <exit@plt>:
  400820:	ff 25 3a 18 20 00    	jmpq   *0x20183a(%rip)        # 602060 <_GLOBAL_OFFSET_TABLE_+0x60>
  400826:	68 09 00 00 00       	pushq  $0x9
  40082b:	e9 50 ff ff ff       	jmpq   400780 <_init+0x28>

0000000000400830 <fwrite@plt>:
  400830:	ff 25 32 18 20 00    	jmpq   *0x201832(%rip)        # 602068 <_GLOBAL_OFFSET_TABLE_+0x68>
  400836:	68 0a 00 00 00       	pushq  $0xa
  40083b:	e9 40 ff ff ff       	jmpq   400780 <_init+0x28>

0000000000400840 <sqrt@plt>:
  400840:	ff 25 2a 18 20 00    	jmpq   *0x20182a(%rip)        # 602070 <_GLOBAL_OFFSET_TABLE_+0x70>
  400846:	68 0b 00 00 00       	pushq  $0xb
  40084b:	e9 30 ff ff ff       	jmpq   400780 <_init+0x28>

Disassembly of section .plt.got:

0000000000400850 <.plt.got>:
  400850:	ff 25 a2 17 20 00    	jmpq   *0x2017a2(%rip)        # 601ff8 <_DYNAMIC+0x1f0>
  400856:	66 90                	xchg   %ax,%ax

Disassembly of section .text:

0000000000400860 <_start>:
  400860:	31 ed                	xor    %ebp,%ebp
  400862:	49 89 d1             	mov    %rdx,%r9
  400865:	5e                   	pop    %rsi
  400866:	48 89 e2             	mov    %rsp,%rdx
  400869:	48 83 e4 f0          	and    $0xfffffffffffffff0,%rsp
  40086d:	50                   	push   %rax
  40086e:	54                   	push   %rsp
  40086f:	49 c7 c0 70 11 40 00 	mov    $0x401170,%r8
  400876:	48 c7 c1 00 11 40 00 	mov    $0x401100,%rcx
  40087d:	48 c7 c7 b3 0b 40 00 	mov    $0x400bb3,%rdi
  400884:	e8 67 ff ff ff       	callq  4007f0 <__libc_start_main@plt>
  400889:	f4                   	hlt    
  40088a:	66 0f 1f 44 00 00    	nopw   0x0(%rax,%rax,1)

0000000000400890 <deregister_tm_clones>:
  400890:	b8 8f 20 60 00       	mov    $0x60208f,%eax
  400895:	55                   	push   %rbp
  400896:	48 2d 88 20 60 00    	sub    $0x602088,%rax
  40089c:	48 83 f8 0e          	cmp    $0xe,%rax
  4008a0:	48 89 e5             	mov    %rsp,%rbp
  4008a3:	76 1b                	jbe    4008c0 <deregister_tm_clones+0x30>
  4008a5:	b8 00 00 00 00       	mov    $0x0,%eax
  4008aa:	48 85 c0             	test   %rax,%rax
  4008ad:	74 11                	je     4008c0 <deregister_tm_clones+0x30>
  4008af:	5d                   	pop    %rbp
  4008b0:	bf 88 20 60 00       	mov    $0x602088,%edi
  4008b5:	ff e0                	jmpq   *%rax
  4008b7:	66 0f 1f 84 00 00 00 	nopw   0x0(%rax,%rax,1)
  4008be:	00 00 
  4008c0:	5d                   	pop    %rbp
  4008c1:	c3                   	retq   
  4008c2:	0f 1f 40 00          	nopl   0x0(%rax)
  4008c6:	66 2e 0f 1f 84 00 00 	nopw   %cs:0x0(%rax,%rax,1)
  4008cd:	00 00 00 

00000000004008d0 <register_tm_clones>:
  4008d0:	be 88 20 60 00       	mov    $0x602088,%esi
  4008d5:	55                   	push   %rbp
  4008d6:	48 81 ee 88 20 60 00 	sub    $0x602088,%rsi
  4008dd:	48 c1 fe 03          	sar    $0x3,%rsi
  4008e1:	48 89 e5             	mov    %rsp,%rbp
  4008e4:	48 89 f0             	mov    %rsi,%rax
  4008e7:	48 c1 e8 3f          	shr    $0x3f,%rax
  4008eb:	48 01 c6             	add    %rax,%rsi
  4008ee:	48 d1 fe             	sar    %rsi
  4008f1:	74 15                	je     400908 <register_tm_clones+0x38>
  4008f3:	b8 00 00 00 00       	mov    $0x0,%eax
  4008f8:	48 85 c0             	test   %rax,%rax
  4008fb:	74 0b                	je     400908 <register_tm_clones+0x38>
  4008fd:	5d                   	pop    %rbp
  4008fe:	bf 88 20 60 00       	mov    $0x602088,%edi
  400903:	ff e0                	jmpq   *%rax
  400905:	0f 1f 00             	nopl   (%rax)
  400908:	5d                   	pop    %rbp
  400909:	c3                   	retq   
  40090a:	66 0f 1f 44 00 00    	nopw   0x0(%rax,%rax,1)

0000000000400910 <__do_global_dtors_aux>:
  400910:	80 3d 91 17 20 00 00 	cmpb   $0x0,0x201791(%rip)        # 6020a8 <completed.7585>
  400917:	75 11                	jne    40092a <__do_global_dtors_aux+0x1a>
  400919:	55                   	push   %rbp
  40091a:	48 89 e5             	mov    %rsp,%rbp
  40091d:	e8 6e ff ff ff       	callq  400890 <deregister_tm_clones>
  400922:	5d                   	pop    %rbp
  400923:	c6 05 7e 17 20 00 01 	movb   $0x1,0x20177e(%rip)        # 6020a8 <completed.7585>
  40092a:	f3 c3                	repz retq 
  40092c:	0f 1f 40 00          	nopl   0x0(%rax)

0000000000400930 <frame_dummy>:
  400930:	bf 00 1e 60 00       	mov    $0x601e00,%edi
  400935:	48 83 3f 00          	cmpq   $0x0,(%rdi)
  400939:	75 05                	jne    400940 <frame_dummy+0x10>
  40093b:	eb 93                	jmp    4008d0 <register_tm_clones>
  40093d:	0f 1f 00             	nopl   (%rax)
  400940:	b8 00 00 00 00       	mov    $0x0,%eax
  400945:	48 85 c0             	test   %rax,%rax
  400948:	74 f1                	je     40093b <frame_dummy+0xb>
  40094a:	55                   	push   %rbp
  40094b:	48 89 e5             	mov    %rsp,%rbp
  40094e:	ff d0                	callq  *%rax
  400950:	5d                   	pop    %rbp
  400951:	e9 7a ff ff ff       	jmpq   4008d0 <register_tm_clones>

0000000000400956 <parent_thread>:
  400956:	55                   	push   %rbp
  400957:	48 89 e5             	mov    %rsp,%rbp
  40095a:	53                   	push   %rbx
  40095b:	48 81 ec f8 00 00 00 	sub    $0xf8,%rsp
  400962:	48 89 bd 08 ff ff ff 	mov    %rdi,-0xf8(%rbp)
  400969:	64 48 8b 04 25 28 00 	mov    %fs:0x28,%rax
  400970:	00 00 
  400972:	48 89 45 e8          	mov    %rax,-0x18(%rbp)
  400976:	31 c0                	xor    %eax,%eax
  400978:	48 8b 85 08 ff ff ff 	mov    -0xf8(%rbp),%rax
  40097f:	48 89 85 38 ff ff ff 	mov    %rax,-0xc8(%rbp)
  400986:	48 c7 85 20 ff ff ff 	movq   $0x0,-0xe0(%rbp)
  40098d:	00 00 00 00 
  400991:	48 c7 85 28 ff ff ff 	movq   $0x0,-0xd8(%rbp)
  400998:	00 00 00 00 
  40099c:	c7 85 10 ff ff ff 00 	movl   $0x0,-0xf0(%rbp)
  4009a3:	00 00 00 
  4009a6:	48 c7 85 30 ff ff ff 	movq   $0x0,-0xd0(%rbp)
  4009ad:	00 00 00 00 
  4009b1:	e9 c5 00 00 00       	jmpq   400a7b <parent_thread+0x125>
  4009b6:	48 8b 85 38 ff ff ff 	mov    -0xc8(%rbp),%rax
  4009bd:	8b 40 04             	mov    0x4(%rax),%eax
  4009c0:	48 8d 8d 20 ff ff ff 	lea    -0xe0(%rbp),%rcx
  4009c7:	ba 08 00 00 00       	mov    $0x8,%edx
  4009cc:	48 89 ce             	mov    %rcx,%rsi
  4009cf:	89 c7                	mov    %eax,%edi
  4009d1:	e8 ca fd ff ff       	callq  4007a0 <write@plt>
  4009d6:	89 85 14 ff ff ff    	mov    %eax,-0xec(%rbp)
  4009dc:	0f a2                	cpuid  
  4009de:	0f 31                	rdtsc  
  4009e0:	89 d7                	mov    %edx,%edi
  4009e2:	89 c6                	mov    %eax,%esi
  4009e4:	89 bd 18 ff ff ff    	mov    %edi,-0xe8(%rbp)
  4009ea:	89 b5 1c ff ff ff    	mov    %esi,-0xe4(%rbp)
  4009f0:	48 8b 85 38 ff ff ff 	mov    -0xc8(%rbp),%rax
  4009f7:	8b 40 08             	mov    0x8(%rax),%eax
  4009fa:	48 8d 8d 28 ff ff ff 	lea    -0xd8(%rbp),%rcx
  400a01:	ba 08 00 00 00       	mov    $0x8,%edx
  400a06:	48 89 ce             	mov    %rcx,%rsi
  400a09:	89 c7                	mov    %eax,%edi
  400a0b:	e8 d0 fd ff ff       	callq  4007e0 <read@plt>
  400a10:	89 85 14 ff ff ff    	mov    %eax,-0xec(%rbp)
  400a16:	8b 85 18 ff ff ff    	mov    -0xe8(%rbp),%eax
  400a1c:	48 c1 e0 20          	shl    $0x20,%rax
  400a20:	48 89 c2             	mov    %rax,%rdx
  400a23:	8b 85 1c ff ff ff    	mov    -0xe4(%rbp),%eax
  400a29:	48 09 d0             	or     %rdx,%rax
  400a2c:	48 89 85 20 ff ff ff 	mov    %rax,-0xe0(%rbp)
  400a33:	83 bd 10 ff ff ff 00 	cmpl   $0x0,-0xf0(%rbp)
  400a3a:	7e 38                	jle    400a74 <parent_thread+0x11e>
  400a3c:	48 8b 95 28 ff ff ff 	mov    -0xd8(%rbp),%rdx
  400a43:	48 8b 85 20 ff ff ff 	mov    -0xe0(%rbp),%rax
  400a4a:	48 29 c2             	sub    %rax,%rdx
  400a4d:	8b 85 10 ff ff ff    	mov    -0xf0(%rbp),%eax
  400a53:	48 98                	cltq   
  400a55:	48 89 94 c5 40 ff ff 	mov    %rdx,-0xc0(%rbp,%rax,8)
  400a5c:	ff 
  400a5d:	8b 85 10 ff ff ff    	mov    -0xf0(%rbp),%eax
  400a63:	48 98                	cltq   
  400a65:	48 8b 84 c5 40 ff ff 	mov    -0xc0(%rbp,%rax,8),%rax
  400a6c:	ff 
  400a6d:	48 01 85 30 ff ff ff 	add    %rax,-0xd0(%rbp)
  400a74:	83 85 10 ff ff ff 01 	addl   $0x1,-0xf0(%rbp)
  400a7b:	83 bd 10 ff ff ff 13 	cmpl   $0x13,-0xf0(%rbp)
  400a82:	0f 8e 2e ff ff ff    	jle    4009b6 <parent_thread+0x60>
  400a88:	8b 0d 2a 16 20 00    	mov    0x20162a(%rip),%ecx        # 6020b8 <i>
  400a8e:	48 8b 85 30 ff ff ff 	mov    -0xd0(%rbp),%rax
  400a95:	48 ba 5f 43 79 0d e5 	movabs $0xd79435e50d79435f,%rdx
  400a9c:	35 94 d7 
  400a9f:	48 f7 e2             	mul    %rdx
  400aa2:	48 c1 ea 04          	shr    $0x4,%rdx
  400aa6:	48 63 c1             	movslq %ecx,%rax
  400aa9:	48 89 14 c5 c0 20 60 	mov    %rdx,0x6020c0(,%rax,8)
  400ab0:	00 
  400ab1:	8b 05 01 16 20 00    	mov    0x201601(%rip),%eax        # 6020b8 <i>
  400ab7:	48 98                	cltq   
  400ab9:	48 8b 14 c5 c0 20 60 	mov    0x6020c0(,%rax,8),%rdx
  400ac0:	00 
  400ac1:	48 8b 05 e8 15 20 00 	mov    0x2015e8(%rip),%rax        # 6020b0 <mean_cont_cycles>
  400ac8:	48 01 d0             	add    %rdx,%rax
  400acb:	48 89 05 de 15 20 00 	mov    %rax,0x2015de(%rip)        # 6020b0 <mean_cont_cycles>
  400ad2:	90                   	nop
  400ad3:	48 8b 5d e8          	mov    -0x18(%rbp),%rbx
  400ad7:	64 48 33 1c 25 28 00 	xor    %fs:0x28,%rbx
  400ade:	00 00 
  400ae0:	74 05                	je     400ae7 <parent_thread+0x191>
  400ae2:	e8 c9 fc ff ff       	callq  4007b0 <__stack_chk_fail@plt>
  400ae7:	48 81 c4 f8 00 00 00 	add    $0xf8,%rsp
  400aee:	5b                   	pop    %rbx
  400aef:	5d                   	pop    %rbp
  400af0:	c3                   	retq   

0000000000400af1 <child_thread>:
  400af1:	55                   	push   %rbp
  400af2:	48 89 e5             	mov    %rsp,%rbp
  400af5:	53                   	push   %rbx
  400af6:	48 83 ec 48          	sub    $0x48,%rsp
  400afa:	48 89 7d b8          	mov    %rdi,-0x48(%rbp)
  400afe:	64 48 8b 04 25 28 00 	mov    %fs:0x28,%rax
  400b05:	00 00 
  400b07:	48 89 45 e8          	mov    %rax,-0x18(%rbp)
  400b0b:	31 c0                	xor    %eax,%eax
  400b0d:	48 8b 45 b8          	mov    -0x48(%rbp),%rax
  400b11:	48 89 45 e0          	mov    %rax,-0x20(%rbp)
  400b15:	48 c7 45 d8 00 00 00 	movq   $0x0,-0x28(%rbp)
  400b1c:	00 
  400b1d:	c7 45 c8 00 00 00 00 	movl   $0x0,-0x38(%rbp)
  400b24:	eb 60                	jmp    400b86 <child_thread+0x95>
  400b26:	48 8b 45 e0          	mov    -0x20(%rbp),%rax
  400b2a:	8b 00                	mov    (%rax),%eax
  400b2c:	48 8d 4d d8          	lea    -0x28(%rbp),%rcx
  400b30:	ba 08 00 00 00       	mov    $0x8,%edx
  400b35:	48 89 ce             	mov    %rcx,%rsi
  400b38:	89 c7                	mov    %eax,%edi
  400b3a:	e8 a1 fc ff ff       	callq  4007e0 <read@plt>
  400b3f:	89 45 cc             	mov    %eax,-0x34(%rbp)
  400b42:	0f 01 f9             	rdtscp 
  400b45:	89 d7                	mov    %edx,%edi
  400b47:	89 c6                	mov    %eax,%esi
  400b49:	0f a2                	cpuid  
  400b4b:	89 7d d0             	mov    %edi,-0x30(%rbp)
  400b4e:	89 75 d4             	mov    %esi,-0x2c(%rbp)
  400b51:	8b 45 d0             	mov    -0x30(%rbp),%eax
  400b54:	48 c1 e0 20          	shl    $0x20,%rax
  400b58:	48 89 c2             	mov    %rax,%rdx
  400b5b:	8b 45 d4             	mov    -0x2c(%rbp),%eax
  400b5e:	48 09 d0             	or     %rdx,%rax
  400b61:	48 89 45 d8          	mov    %rax,-0x28(%rbp)
  400b65:	48 8b 45 e0          	mov    -0x20(%rbp),%rax
  400b69:	8b 40 0c             	mov    0xc(%rax),%eax
  400b6c:	48 8d 4d d8          	lea    -0x28(%rbp),%rcx
  400b70:	ba 08 00 00 00       	mov    $0x8,%edx
  400b75:	48 89 ce             	mov    %rcx,%rsi
  400b78:	89 c7                	mov    %eax,%edi
  400b7a:	e8 21 fc ff ff       	callq  4007a0 <write@plt>
  400b7f:	89 45 cc             	mov    %eax,-0x34(%rbp)
  400b82:	83 45 c8 01          	addl   $0x1,-0x38(%rbp)
  400b86:	83 7d c8 13          	cmpl   $0x13,-0x38(%rbp)
  400b8a:	7e 9a                	jle    400b26 <child_thread+0x35>
  400b8c:	90                   	nop
  400b8d:	48 8b 5d e8          	mov    -0x18(%rbp),%rbx
  400b91:	64 48 33 1c 25 28 00 	xor    %fs:0x28,%rbx
  400b98:	00 00 
  400b9a:	74 05                	je     400ba1 <child_thread+0xb0>
  400b9c:	e8 0f fc ff ff       	callq  4007b0 <__stack_chk_fail@plt>
  400ba1:	48 83 c4 48          	add    $0x48,%rsp
  400ba5:	5b                   	pop    %rbx
  400ba6:	5d                   	pop    %rbp
  400ba7:	c3                   	retq   

0000000000400ba8 <empty_thread>:
  400ba8:	55                   	push   %rbp
  400ba9:	48 89 e5             	mov    %rsp,%rbp
  400bac:	48 89 7d f8          	mov    %rdi,-0x8(%rbp)
  400bb0:	90                   	nop
  400bb1:	5d                   	pop    %rbp
  400bb2:	c3                   	retq   

0000000000400bb3 <main>:
  400bb3:	55                   	push   %rbp
  400bb4:	48 89 e5             	mov    %rsp,%rbp
  400bb7:	53                   	push   %rbx
  400bb8:	48 81 ec 28 01 00 00 	sub    $0x128,%rsp
  400bbf:	89 bd dc fe ff ff    	mov    %edi,-0x124(%rbp)
  400bc5:	48 89 b5 d0 fe ff ff 	mov    %rsi,-0x130(%rbp)
  400bcc:	64 48 8b 04 25 28 00 	mov    %fs:0x28,%rax
  400bd3:	00 00 
  400bd5:	48 89 45 e8          	mov    %rax,-0x18(%rbp)
  400bd9:	31 c0                	xor    %eax,%eax
  400bdb:	48 c7 85 10 ff ff ff 	movq   $0x0,-0xf0(%rbp)
  400be2:	00 00 00 00 
  400be6:	48 c7 85 18 ff ff ff 	movq   $0x0,-0xe8(%rbp)
  400bed:	00 00 00 00 
  400bf1:	48 c7 85 20 ff ff ff 	movq   $0x0,-0xe0(%rbp)
  400bf8:	00 00 00 00 
  400bfc:	c7 05 b2 14 20 00 00 	movl   $0x0,0x2014b2(%rip)        # 6020b8 <i>
  400c03:	00 00 00 
  400c06:	e9 17 02 00 00       	jmpq   400e22 <main+0x26f>
  400c0b:	48 8d 85 30 ff ff ff 	lea    -0xd0(%rbp),%rax
  400c12:	48 89 c7             	mov    %rax,%rdi
  400c15:	e8 b6 fb ff ff       	callq  4007d0 <pipe@plt>
  400c1a:	83 f8 ff             	cmp    $0xffffffff,%eax
  400c1d:	75 14                	jne    400c33 <main+0x80>
  400c1f:	bf 88 11 40 00       	mov    $0x401188,%edi
  400c24:	e8 d7 fb ff ff       	callq  400800 <perror@plt>
  400c29:	bf 00 00 00 00       	mov    $0x0,%edi
  400c2e:	e8 ed fb ff ff       	callq  400820 <exit@plt>
  400c33:	48 8d 85 30 ff ff ff 	lea    -0xd0(%rbp),%rax
  400c3a:	48 83 c0 08          	add    $0x8,%rax
  400c3e:	48 89 c7             	mov    %rax,%rdi
  400c41:	e8 8a fb ff ff       	callq  4007d0 <pipe@plt>
  400c46:	83 f8 ff             	cmp    $0xffffffff,%eax
  400c49:	75 14                	jne    400c5f <main+0xac>
  400c4b:	bf 88 11 40 00       	mov    $0x401188,%edi
  400c50:	e8 ab fb ff ff       	callq  400800 <perror@plt>
  400c55:	bf 00 00 00 00       	mov    $0x0,%edi
  400c5a:	e8 c1 fb ff ff       	callq  400820 <exit@plt>
  400c5f:	0f a2                	cpuid  
  400c61:	0f 31                	rdtsc  
  400c63:	89 d7                	mov    %edx,%edi
  400c65:	89 c6                	mov    %eax,%esi
  400c67:	89 bd e8 fe ff ff    	mov    %edi,-0x118(%rbp)
  400c6d:	89 b5 ec fe ff ff    	mov    %esi,-0x114(%rbp)
  400c73:	48 8d 95 e4 fe ff ff 	lea    -0x11c(%rbp),%rdx
  400c7a:	48 8d 85 08 ff ff ff 	lea    -0xf8(%rbp),%rax
  400c81:	48 89 d1             	mov    %rdx,%rcx
  400c84:	ba a8 0b 40 00       	mov    $0x400ba8,%edx
  400c89:	be 00 00 00 00       	mov    $0x0,%esi
  400c8e:	48 89 c7             	mov    %rax,%rdi
  400c91:	e8 fa fa ff ff       	callq  400790 <pthread_create@plt>
  400c96:	0f 01 f9             	rdtscp 
  400c99:	89 d7                	mov    %edx,%edi
  400c9b:	89 c6                	mov    %eax,%esi
  400c9d:	0f a2                	cpuid  
  400c9f:	89 bd f0 fe ff ff    	mov    %edi,-0x110(%rbp)
  400ca5:	89 b5 f4 fe ff ff    	mov    %esi,-0x10c(%rbp)
  400cab:	8b 85 f0 fe ff ff    	mov    -0x110(%rbp),%eax
  400cb1:	48 c1 e0 20          	shl    $0x20,%rax
  400cb5:	48 89 c2             	mov    %rax,%rdx
  400cb8:	8b 85 f4 fe ff ff    	mov    -0x10c(%rbp),%eax
  400cbe:	48 09 c2             	or     %rax,%rdx
  400cc1:	8b 85 e8 fe ff ff    	mov    -0x118(%rbp),%eax
  400cc7:	48 c1 e0 20          	shl    $0x20,%rax
  400ccb:	48 89 c1             	mov    %rax,%rcx
  400cce:	8b 85 ec fe ff ff    	mov    -0x114(%rbp),%eax
  400cd4:	48 09 c8             	or     %rcx,%rax
  400cd7:	48 29 c2             	sub    %rax,%rdx
  400cda:	48 89 d0             	mov    %rdx,%rax
  400cdd:	48 89 85 28 ff ff ff 	mov    %rax,-0xd8(%rbp)
  400ce4:	8b 05 ce 13 20 00    	mov    0x2013ce(%rip),%eax        # 6020b8 <i>
  400cea:	48 98                	cltq   
  400cec:	48 8b 95 28 ff ff ff 	mov    -0xd8(%rbp),%rdx
  400cf3:	48 89 94 c5 40 ff ff 	mov    %rdx,-0xc0(%rbp,%rax,8)
  400cfa:	ff 
  400cfb:	48 8b 85 28 ff ff ff 	mov    -0xd8(%rbp),%rax
  400d02:	48 01 85 10 ff ff ff 	add    %rax,-0xf0(%rbp)
  400d09:	48 8d 95 30 ff ff ff 	lea    -0xd0(%rbp),%rdx
  400d10:	48 8d 85 f8 fe ff ff 	lea    -0x108(%rbp),%rax
  400d17:	48 89 d1             	mov    %rdx,%rcx
  400d1a:	ba 56 09 40 00       	mov    $0x400956,%edx
  400d1f:	be 00 00 00 00       	mov    $0x0,%esi
  400d24:	48 89 c7             	mov    %rax,%rdi
  400d27:	e8 64 fa ff ff       	callq  400790 <pthread_create@plt>
  400d2c:	85 c0                	test   %eax,%eax
  400d2e:	74 28                	je     400d58 <main+0x1a5>
  400d30:	48 8b 05 69 13 20 00 	mov    0x201369(%rip),%rax        # 6020a0 <stderr@@GLIBC_2.2.5>
  400d37:	48 89 c1             	mov    %rax,%rcx
  400d3a:	ba 16 00 00 00       	mov    $0x16,%edx
  400d3f:	be 01 00 00 00       	mov    $0x1,%esi
  400d44:	bf 8d 11 40 00       	mov    $0x40118d,%edi
  400d49:	e8 e2 fa ff ff       	callq  400830 <fwrite@plt>
  400d4e:	b8 01 00 00 00       	mov    $0x1,%eax
  400d53:	e9 88 03 00 00       	jmpq   4010e0 <main+0x52d>
  400d58:	48 8d 95 30 ff ff ff 	lea    -0xd0(%rbp),%rdx
  400d5f:	48 8d 85 00 ff ff ff 	lea    -0x100(%rbp),%rax
  400d66:	48 89 d1             	mov    %rdx,%rcx
  400d69:	ba f1 0a 40 00       	mov    $0x400af1,%edx
  400d6e:	be 00 00 00 00       	mov    $0x0,%esi
  400d73:	48 89 c7             	mov    %rax,%rdi
  400d76:	e8 15 fa ff ff       	callq  400790 <pthread_create@plt>
  400d7b:	85 c0                	test   %eax,%eax
  400d7d:	74 28                	je     400da7 <main+0x1f4>
  400d7f:	48 8b 05 1a 13 20 00 	mov    0x20131a(%rip),%rax        # 6020a0 <stderr@@GLIBC_2.2.5>
  400d86:	48 89 c1             	mov    %rax,%rcx
  400d89:	ba 16 00 00 00       	mov    $0x16,%edx
  400d8e:	be 01 00 00 00       	mov    $0x1,%esi
  400d93:	bf 8d 11 40 00       	mov    $0x40118d,%edi
  400d98:	e8 93 fa ff ff       	callq  400830 <fwrite@plt>
  400d9d:	b8 01 00 00 00       	mov    $0x1,%eax
  400da2:	e9 39 03 00 00       	jmpq   4010e0 <main+0x52d>
  400da7:	48 8b 85 f8 fe ff ff 	mov    -0x108(%rbp),%rax
  400dae:	be 00 00 00 00       	mov    $0x0,%esi
  400db3:	48 89 c7             	mov    %rax,%rdi
  400db6:	e8 55 fa ff ff       	callq  400810 <pthread_join@plt>
  400dbb:	85 c0                	test   %eax,%eax
  400dbd:	74 1e                	je     400ddd <main+0x22a>
  400dbf:	48 8b 05 da 12 20 00 	mov    0x2012da(%rip),%rax        # 6020a0 <stderr@@GLIBC_2.2.5>
  400dc6:	48 89 c1             	mov    %rax,%rcx
  400dc9:	ba 16 00 00 00       	mov    $0x16,%edx
  400dce:	be 01 00 00 00       	mov    $0x1,%esi
  400dd3:	bf a4 11 40 00       	mov    $0x4011a4,%edi
  400dd8:	e8 53 fa ff ff       	callq  400830 <fwrite@plt>
  400ddd:	48 8b 85 00 ff ff ff 	mov    -0x100(%rbp),%rax
  400de4:	be 00 00 00 00       	mov    $0x0,%esi
  400de9:	48 89 c7             	mov    %rax,%rdi
  400dec:	e8 1f fa ff ff       	callq  400810 <pthread_join@plt>
  400df1:	85 c0                	test   %eax,%eax
  400df3:	74 1e                	je     400e13 <main+0x260>
  400df5:	48 8b 05 a4 12 20 00 	mov    0x2012a4(%rip),%rax        # 6020a0 <stderr@@GLIBC_2.2.5>
  400dfc:	48 89 c1             	mov    %rax,%rcx
  400dff:	ba 16 00 00 00       	mov    $0x16,%edx
  400e04:	be 01 00 00 00       	mov    $0x1,%esi
  400e09:	bf bb 11 40 00       	mov    $0x4011bb,%edi
  400e0e:	e8 1d fa ff ff       	callq  400830 <fwrite@plt>
  400e13:	8b 05 9f 12 20 00    	mov    0x20129f(%rip),%eax        # 6020b8 <i>
  400e19:	83 c0 01             	add    $0x1,%eax
  400e1c:	89 05 96 12 20 00    	mov    %eax,0x201296(%rip)        # 6020b8 <i>
  400e22:	8b 05 90 12 20 00    	mov    0x201290(%rip),%eax        # 6020b8 <i>
  400e28:	83 f8 13             	cmp    $0x13,%eax
  400e2b:	0f 8e da fd ff ff    	jle    400c0b <main+0x58>
  400e31:	48 8b 85 10 ff ff ff 	mov    -0xf0(%rbp),%rax
  400e38:	48 ba cd cc cc cc cc 	movabs $0xcccccccccccccccd,%rdx
  400e3f:	cc cc cc 
  400e42:	48 f7 e2             	mul    %rdx
  400e45:	48 89 d0             	mov    %rdx,%rax
  400e48:	48 c1 e8 04          	shr    $0x4,%rax
  400e4c:	48 89 85 10 ff ff ff 	mov    %rax,-0xf0(%rbp)
  400e53:	48 8b 05 56 12 20 00 	mov    0x201256(%rip),%rax        # 6020b0 <mean_cont_cycles>
  400e5a:	48 ba cd cc cc cc cc 	movabs $0xcccccccccccccccd,%rdx
  400e61:	cc cc cc 
  400e64:	48 f7 e2             	mul    %rdx
  400e67:	48 89 d0             	mov    %rdx,%rax
  400e6a:	48 c1 e8 04          	shr    $0x4,%rax
  400e6e:	48 89 05 3b 12 20 00 	mov    %rax,0x20123b(%rip)        # 6020b0 <mean_cont_cycles>
  400e75:	48 8b 85 10 ff ff ff 	mov    -0xf0(%rbp),%rax
  400e7c:	48 89 c6             	mov    %rax,%rsi
  400e7f:	bf d2 11 40 00       	mov    $0x4011d2,%edi
  400e84:	b8 00 00 00 00       	mov    $0x0,%eax
  400e89:	e8 32 f9 ff ff       	callq  4007c0 <printf@plt>
  400e8e:	48 8b 05 1b 12 20 00 	mov    0x20121b(%rip),%rax        # 6020b0 <mean_cont_cycles>
  400e95:	48 89 c6             	mov    %rax,%rsi
  400e98:	bf e8 11 40 00       	mov    $0x4011e8,%edi
  400e9d:	b8 00 00 00 00       	mov    $0x0,%eax
  400ea2:	e8 19 f9 ff ff       	callq  4007c0 <printf@plt>
  400ea7:	c7 05 07 12 20 00 00 	movl   $0x0,0x201207(%rip)        # 6020b8 <i>
  400eae:	00 00 00 
  400eb1:	e9 90 00 00 00       	jmpq   400f46 <main+0x393>
  400eb6:	8b 05 fc 11 20 00    	mov    0x2011fc(%rip),%eax        # 6020b8 <i>
  400ebc:	48 98                	cltq   
  400ebe:	48 8b 84 c5 40 ff ff 	mov    -0xc0(%rbp,%rax,8),%rax
  400ec5:	ff 
  400ec6:	48 2b 85 10 ff ff ff 	sub    -0xf0(%rbp),%rax
  400ecd:	48 89 c2             	mov    %rax,%rdx
  400ed0:	8b 05 e2 11 20 00    	mov    0x2011e2(%rip),%eax        # 6020b8 <i>
  400ed6:	48 98                	cltq   
  400ed8:	48 8b 84 c5 40 ff ff 	mov    -0xc0(%rbp,%rax,8),%rax
  400edf:	ff 
  400ee0:	48 2b 85 10 ff ff ff 	sub    -0xf0(%rbp),%rax
  400ee7:	48 0f af c2          	imul   %rdx,%rax
  400eeb:	48 01 85 18 ff ff ff 	add    %rax,-0xe8(%rbp)
  400ef2:	8b 05 c0 11 20 00    	mov    0x2011c0(%rip),%eax        # 6020b8 <i>
  400ef8:	48 98                	cltq   
  400efa:	48 8b 14 c5 c0 20 60 	mov    0x6020c0(,%rax,8),%rdx
  400f01:	00 
  400f02:	48 8b 05 a7 11 20 00 	mov    0x2011a7(%rip),%rax        # 6020b0 <mean_cont_cycles>
  400f09:	48 89 d1             	mov    %rdx,%rcx
  400f0c:	48 29 c1             	sub    %rax,%rcx
  400f0f:	8b 05 a3 11 20 00    	mov    0x2011a3(%rip),%eax        # 6020b8 <i>
  400f15:	48 98                	cltq   
  400f17:	48 8b 14 c5 c0 20 60 	mov    0x6020c0(,%rax,8),%rdx
  400f1e:	00 
  400f1f:	48 8b 05 8a 11 20 00 	mov    0x20118a(%rip),%rax        # 6020b0 <mean_cont_cycles>
  400f26:	48 29 c2             	sub    %rax,%rdx
  400f29:	48 89 d0             	mov    %rdx,%rax
  400f2c:	48 0f af c1          	imul   %rcx,%rax
  400f30:	48 01 85 20 ff ff ff 	add    %rax,-0xe0(%rbp)
  400f37:	8b 05 7b 11 20 00    	mov    0x20117b(%rip),%eax        # 6020b8 <i>
  400f3d:	83 c0 01             	add    $0x1,%eax
  400f40:	89 05 72 11 20 00    	mov    %eax,0x201172(%rip)        # 6020b8 <i>
  400f46:	8b 05 6c 11 20 00    	mov    0x20116c(%rip),%eax        # 6020b8 <i>
  400f4c:	83 f8 13             	cmp    $0x13,%eax
  400f4f:	0f 8e 61 ff ff ff    	jle    400eb6 <main+0x303>
  400f55:	48 8b 85 18 ff ff ff 	mov    -0xe8(%rbp),%rax
  400f5c:	48 ba cd cc cc cc cc 	movabs $0xcccccccccccccccd,%rdx
  400f63:	cc cc cc 
  400f66:	48 f7 e2             	mul    %rdx
  400f69:	48 89 d0             	mov    %rdx,%rax
  400f6c:	48 c1 e8 04          	shr    $0x4,%rax
  400f70:	48 89 85 18 ff ff ff 	mov    %rax,-0xe8(%rbp)
  400f77:	48 8b 85 20 ff ff ff 	mov    -0xe0(%rbp),%rax
  400f7e:	48 ba cd cc cc cc cc 	movabs $0xcccccccccccccccd,%rdx
  400f85:	cc cc cc 
  400f88:	48 f7 e2             	mul    %rdx
  400f8b:	48 89 d0             	mov    %rdx,%rax
  400f8e:	48 c1 e8 04          	shr    $0x4,%rax
  400f92:	48 89 85 20 ff ff ff 	mov    %rax,-0xe0(%rbp)
  400f99:	48 8b 85 18 ff ff ff 	mov    -0xe8(%rbp),%rax
  400fa0:	48 85 c0             	test   %rax,%rax
  400fa3:	78 0b                	js     400fb0 <main+0x3fd>
  400fa5:	66 0f ef c0          	pxor   %xmm0,%xmm0
  400fa9:	f2 48 0f 2a c0       	cvtsi2sd %rax,%xmm0
  400fae:	eb 19                	jmp    400fc9 <main+0x416>
  400fb0:	48 89 c2             	mov    %rax,%rdx
  400fb3:	48 d1 ea             	shr    %rdx
  400fb6:	83 e0 01             	and    $0x1,%eax
  400fb9:	48 09 c2             	or     %rax,%rdx
  400fbc:	66 0f ef c0          	pxor   %xmm0,%xmm0
  400fc0:	f2 48 0f 2a c2       	cvtsi2sd %rdx,%xmm0
  400fc5:	f2 0f 58 c0          	addsd  %xmm0,%xmm0
  400fc9:	e8 72 f8 ff ff       	callq  400840 <sqrt@plt>
  400fce:	f2 0f 5a c0          	cvtsd2ss %xmm0,%xmm0
  400fd2:	f3 0f 10 0d a6 02 00 	movss  0x2a6(%rip),%xmm1        # 401280 <_IO_stdin_used+0x100>
  400fd9:	00 
  400fda:	f3 0f 5e c1          	divss  %xmm1,%xmm0
  400fde:	f3 0f 5a d0          	cvtss2sd %xmm0,%xmm2
  400fe2:	48 8b 85 10 ff ff ff 	mov    -0xf0(%rbp),%rax
  400fe9:	48 85 c0             	test   %rax,%rax
  400fec:	78 0b                	js     400ff9 <main+0x446>
  400fee:	66 0f ef c0          	pxor   %xmm0,%xmm0
  400ff2:	f3 48 0f 2a c0       	cvtsi2ss %rax,%xmm0
  400ff7:	eb 19                	jmp    401012 <main+0x45f>
  400ff9:	48 89 c2             	mov    %rax,%rdx
  400ffc:	48 d1 ea             	shr    %rdx
  400fff:	83 e0 01             	and    $0x1,%eax
  401002:	48 09 c2             	or     %rax,%rdx
  401005:	66 0f ef c0          	pxor   %xmm0,%xmm0
  401009:	f3 48 0f 2a c2       	cvtsi2ss %rdx,%xmm0
  40100e:	f3 0f 58 c0          	addss  %xmm0,%xmm0
  401012:	f3 0f 10 0d 66 02 00 	movss  0x266(%rip),%xmm1        # 401280 <_IO_stdin_used+0x100>
  401019:	00 
  40101a:	f3 0f 5e c1          	divss  %xmm1,%xmm0
  40101e:	f3 0f 5a c0          	cvtss2sd %xmm0,%xmm0
  401022:	be 14 00 00 00       	mov    $0x14,%esi
  401027:	66 0f 28 ca          	movapd %xmm2,%xmm1
  40102b:	bf 00 12 40 00       	mov    $0x401200,%edi
  401030:	b8 02 00 00 00       	mov    $0x2,%eax
  401035:	e8 86 f7 ff ff       	callq  4007c0 <printf@plt>
  40103a:	48 8b 85 20 ff ff ff 	mov    -0xe0(%rbp),%rax
  401041:	48 85 c0             	test   %rax,%rax
  401044:	78 0b                	js     401051 <main+0x49e>
  401046:	66 0f ef c0          	pxor   %xmm0,%xmm0
  40104a:	f2 48 0f 2a c0       	cvtsi2sd %rax,%xmm0
  40104f:	eb 19                	jmp    40106a <main+0x4b7>
  401051:	48 89 c2             	mov    %rax,%rdx
  401054:	48 d1 ea             	shr    %rdx
  401057:	83 e0 01             	and    $0x1,%eax
  40105a:	48 09 c2             	or     %rax,%rdx
  40105d:	66 0f ef c0          	pxor   %xmm0,%xmm0
  401061:	f2 48 0f 2a c2       	cvtsi2sd %rdx,%xmm0
  401066:	f2 0f 58 c0          	addsd  %xmm0,%xmm0
  40106a:	e8 d1 f7 ff ff       	callq  400840 <sqrt@plt>
  40106f:	f2 0f 5a c0          	cvtsd2ss %xmm0,%xmm0
  401073:	f3 0f 10 0d 05 02 00 	movss  0x205(%rip),%xmm1        # 401280 <_IO_stdin_used+0x100>
  40107a:	00 
  40107b:	f3 0f 5e c1          	divss  %xmm1,%xmm0
  40107f:	f3 0f 5a d0          	cvtss2sd %xmm0,%xmm2
  401083:	48 8b 05 26 10 20 00 	mov    0x201026(%rip),%rax        # 6020b0 <mean_cont_cycles>
  40108a:	48 85 c0             	test   %rax,%rax
  40108d:	78 0b                	js     40109a <main+0x4e7>
  40108f:	66 0f ef c0          	pxor   %xmm0,%xmm0
  401093:	f3 48 0f 2a c0       	cvtsi2ss %rax,%xmm0
  401098:	eb 19                	jmp    4010b3 <main+0x500>
  40109a:	48 89 c2             	mov    %rax,%rdx
  40109d:	48 d1 ea             	shr    %rdx
  4010a0:	83 e0 01             	and    $0x1,%eax
  4010a3:	48 09 c2             	or     %rax,%rdx
  4010a6:	66 0f ef c0          	pxor   %xmm0,%xmm0
  4010aa:	f3 48 0f 2a c2       	cvtsi2ss %rdx,%xmm0
  4010af:	f3 0f 58 c0          	addss  %xmm0,%xmm0
  4010b3:	f3 0f 10 0d c5 01 00 	movss  0x1c5(%rip),%xmm1        # 401280 <_IO_stdin_used+0x100>
  4010ba:	00 
  4010bb:	f3 0f 5e c1          	divss  %xmm1,%xmm0
  4010bf:	f3 0f 5a c0          	cvtss2sd %xmm0,%xmm0
  4010c3:	be 14 00 00 00       	mov    $0x14,%esi
  4010c8:	66 0f 28 ca          	movapd %xmm2,%xmm1
  4010cc:	bf 40 12 40 00       	mov    $0x401240,%edi
  4010d1:	b8 02 00 00 00       	mov    $0x2,%eax
  4010d6:	e8 e5 f6 ff ff       	callq  4007c0 <printf@plt>
  4010db:	b8 00 00 00 00       	mov    $0x0,%eax
  4010e0:	48 8b 5d e8          	mov    -0x18(%rbp),%rbx
  4010e4:	64 48 33 1c 25 28 00 	xor    %fs:0x28,%rbx
  4010eb:	00 00 
  4010ed:	74 05                	je     4010f4 <main+0x541>
  4010ef:	e8 bc f6 ff ff       	callq  4007b0 <__stack_chk_fail@plt>
  4010f4:	48 81 c4 28 01 00 00 	add    $0x128,%rsp
  4010fb:	5b                   	pop    %rbx
  4010fc:	5d                   	pop    %rbp
  4010fd:	c3                   	retq   
  4010fe:	66 90                	xchg   %ax,%ax

0000000000401100 <__libc_csu_init>:
  401100:	41 57                	push   %r15
  401102:	41 56                	push   %r14
  401104:	41 89 ff             	mov    %edi,%r15d
  401107:	41 55                	push   %r13
  401109:	41 54                	push   %r12
  40110b:	4c 8d 25 de 0c 20 00 	lea    0x200cde(%rip),%r12        # 601df0 <__frame_dummy_init_array_entry>
  401112:	55                   	push   %rbp
  401113:	48 8d 2d de 0c 20 00 	lea    0x200cde(%rip),%rbp        # 601df8 <__init_array_end>
  40111a:	53                   	push   %rbx
  40111b:	49 89 f6             	mov    %rsi,%r14
  40111e:	49 89 d5             	mov    %rdx,%r13
  401121:	4c 29 e5             	sub    %r12,%rbp
  401124:	48 83 ec 08          	sub    $0x8,%rsp
  401128:	48 c1 fd 03          	sar    $0x3,%rbp
  40112c:	e8 27 f6 ff ff       	callq  400758 <_init>
  401131:	48 85 ed             	test   %rbp,%rbp
  401134:	74 20                	je     401156 <__libc_csu_init+0x56>
  401136:	31 db                	xor    %ebx,%ebx
  401138:	0f 1f 84 00 00 00 00 	nopl   0x0(%rax,%rax,1)
  40113f:	00 
  401140:	4c 89 ea             	mov    %r13,%rdx
  401143:	4c 89 f6             	mov    %r14,%rsi
  401146:	44 89 ff             	mov    %r15d,%edi
  401149:	41 ff 14 dc          	callq  *(%r12,%rbx,8)
  40114d:	48 83 c3 01          	add    $0x1,%rbx
  401151:	48 39 eb             	cmp    %rbp,%rbx
  401154:	75 ea                	jne    401140 <__libc_csu_init+0x40>
  401156:	48 83 c4 08          	add    $0x8,%rsp
  40115a:	5b                   	pop    %rbx
  40115b:	5d                   	pop    %rbp
  40115c:	41 5c                	pop    %r12
  40115e:	41 5d                	pop    %r13
  401160:	41 5e                	pop    %r14
  401162:	41 5f                	pop    %r15
  401164:	c3                   	retq   
  401165:	90                   	nop
  401166:	66 2e 0f 1f 84 00 00 	nopw   %cs:0x0(%rax,%rax,1)
  40116d:	00 00 00 

0000000000401170 <__libc_csu_fini>:
  401170:	f3 c3                	repz retq 

Disassembly of section .fini:

0000000000401174 <_fini>:
  401174:	48 83 ec 08          	sub    $0x8,%rsp
  401178:	48 83 c4 08          	add    $0x8,%rsp
  40117c:	c3                   	retq   
