
./obj/page_fault:     file format elf64-x86-64


Disassembly of section .init:

0000000000400508 <_init>:
  400508:	48 83 ec 08          	sub    $0x8,%rsp
  40050c:	48 8b 05 e5 0a 20 00 	mov    0x200ae5(%rip),%rax        # 600ff8 <_DYNAMIC+0x1d0>
  400513:	48 85 c0             	test   %rax,%rax
  400516:	74 05                	je     40051d <_init+0x15>
  400518:	e8 93 00 00 00       	callq  4005b0 <open@plt+0x10>
  40051d:	48 83 c4 08          	add    $0x8,%rsp
  400521:	c3                   	retq   

Disassembly of section .plt:

0000000000400530 <puts@plt-0x10>:
  400530:	ff 35 d2 0a 20 00    	pushq  0x200ad2(%rip)        # 601008 <_GLOBAL_OFFSET_TABLE_+0x8>
  400536:	ff 25 d4 0a 20 00    	jmpq   *0x200ad4(%rip)        # 601010 <_GLOBAL_OFFSET_TABLE_+0x10>
  40053c:	0f 1f 40 00          	nopl   0x0(%rax)

0000000000400540 <puts@plt>:
  400540:	ff 25 d2 0a 20 00    	jmpq   *0x200ad2(%rip)        # 601018 <_GLOBAL_OFFSET_TABLE_+0x18>
  400546:	68 00 00 00 00       	pushq  $0x0
  40054b:	e9 e0 ff ff ff       	jmpq   400530 <_init+0x28>

0000000000400550 <__stack_chk_fail@plt>:
  400550:	ff 25 ca 0a 20 00    	jmpq   *0x200aca(%rip)        # 601020 <_GLOBAL_OFFSET_TABLE_+0x20>
  400556:	68 01 00 00 00       	pushq  $0x1
  40055b:	e9 d0 ff ff ff       	jmpq   400530 <_init+0x28>

0000000000400560 <mmap@plt>:
  400560:	ff 25 c2 0a 20 00    	jmpq   *0x200ac2(%rip)        # 601028 <_GLOBAL_OFFSET_TABLE_+0x28>
  400566:	68 02 00 00 00       	pushq  $0x2
  40056b:	e9 c0 ff ff ff       	jmpq   400530 <_init+0x28>

0000000000400570 <printf@plt>:
  400570:	ff 25 ba 0a 20 00    	jmpq   *0x200aba(%rip)        # 601030 <_GLOBAL_OFFSET_TABLE_+0x30>
  400576:	68 03 00 00 00       	pushq  $0x3
  40057b:	e9 b0 ff ff ff       	jmpq   400530 <_init+0x28>

0000000000400580 <__libc_start_main@plt>:
  400580:	ff 25 b2 0a 20 00    	jmpq   *0x200ab2(%rip)        # 601038 <_GLOBAL_OFFSET_TABLE_+0x38>
  400586:	68 04 00 00 00       	pushq  $0x4
  40058b:	e9 a0 ff ff ff       	jmpq   400530 <_init+0x28>

0000000000400590 <__xstat@plt>:
  400590:	ff 25 aa 0a 20 00    	jmpq   *0x200aaa(%rip)        # 601040 <_GLOBAL_OFFSET_TABLE_+0x40>
  400596:	68 05 00 00 00       	pushq  $0x5
  40059b:	e9 90 ff ff ff       	jmpq   400530 <_init+0x28>

00000000004005a0 <open@plt>:
  4005a0:	ff 25 a2 0a 20 00    	jmpq   *0x200aa2(%rip)        # 601048 <_GLOBAL_OFFSET_TABLE_+0x48>
  4005a6:	68 06 00 00 00       	pushq  $0x6
  4005ab:	e9 80 ff ff ff       	jmpq   400530 <_init+0x28>

Disassembly of section .plt.got:

00000000004005b0 <.plt.got>:
  4005b0:	ff 25 42 0a 20 00    	jmpq   *0x200a42(%rip)        # 600ff8 <_DYNAMIC+0x1d0>
  4005b6:	66 90                	xchg   %ax,%ax

Disassembly of section .text:

00000000004005c0 <_start>:
  4005c0:	31 ed                	xor    %ebp,%ebp
  4005c2:	49 89 d1             	mov    %rdx,%r9
  4005c5:	5e                   	pop    %rsi
  4005c6:	48 89 e2             	mov    %rsp,%rdx
  4005c9:	48 83 e4 f0          	and    $0xfffffffffffffff0,%rsp
  4005cd:	50                   	push   %rax
  4005ce:	54                   	push   %rsp
  4005cf:	49 c7 c0 f0 09 40 00 	mov    $0x4009f0,%r8
  4005d6:	48 c7 c1 80 09 40 00 	mov    $0x400980,%rcx
  4005dd:	48 c7 c7 b6 06 40 00 	mov    $0x4006b6,%rdi
  4005e4:	e8 97 ff ff ff       	callq  400580 <__libc_start_main@plt>
  4005e9:	f4                   	hlt    
  4005ea:	66 0f 1f 44 00 00    	nopw   0x0(%rax,%rax,1)

00000000004005f0 <deregister_tm_clones>:
  4005f0:	b8 67 10 60 00       	mov    $0x601067,%eax
  4005f5:	55                   	push   %rbp
  4005f6:	48 2d 60 10 60 00    	sub    $0x601060,%rax
  4005fc:	48 83 f8 0e          	cmp    $0xe,%rax
  400600:	48 89 e5             	mov    %rsp,%rbp
  400603:	76 1b                	jbe    400620 <deregister_tm_clones+0x30>
  400605:	b8 00 00 00 00       	mov    $0x0,%eax
  40060a:	48 85 c0             	test   %rax,%rax
  40060d:	74 11                	je     400620 <deregister_tm_clones+0x30>
  40060f:	5d                   	pop    %rbp
  400610:	bf 60 10 60 00       	mov    $0x601060,%edi
  400615:	ff e0                	jmpq   *%rax
  400617:	66 0f 1f 84 00 00 00 	nopw   0x0(%rax,%rax,1)
  40061e:	00 00 
  400620:	5d                   	pop    %rbp
  400621:	c3                   	retq   
  400622:	0f 1f 40 00          	nopl   0x0(%rax)
  400626:	66 2e 0f 1f 84 00 00 	nopw   %cs:0x0(%rax,%rax,1)
  40062d:	00 00 00 

0000000000400630 <register_tm_clones>:
  400630:	be 60 10 60 00       	mov    $0x601060,%esi
  400635:	55                   	push   %rbp
  400636:	48 81 ee 60 10 60 00 	sub    $0x601060,%rsi
  40063d:	48 c1 fe 03          	sar    $0x3,%rsi
  400641:	48 89 e5             	mov    %rsp,%rbp
  400644:	48 89 f0             	mov    %rsi,%rax
  400647:	48 c1 e8 3f          	shr    $0x3f,%rax
  40064b:	48 01 c6             	add    %rax,%rsi
  40064e:	48 d1 fe             	sar    %rsi
  400651:	74 15                	je     400668 <register_tm_clones+0x38>
  400653:	b8 00 00 00 00       	mov    $0x0,%eax
  400658:	48 85 c0             	test   %rax,%rax
  40065b:	74 0b                	je     400668 <register_tm_clones+0x38>
  40065d:	5d                   	pop    %rbp
  40065e:	bf 60 10 60 00       	mov    $0x601060,%edi
  400663:	ff e0                	jmpq   *%rax
  400665:	0f 1f 00             	nopl   (%rax)
  400668:	5d                   	pop    %rbp
  400669:	c3                   	retq   
  40066a:	66 0f 1f 44 00 00    	nopw   0x0(%rax,%rax,1)

0000000000400670 <__do_global_dtors_aux>:
  400670:	80 3d e9 09 20 00 00 	cmpb   $0x0,0x2009e9(%rip)        # 601060 <__TMC_END__>
  400677:	75 11                	jne    40068a <__do_global_dtors_aux+0x1a>
  400679:	55                   	push   %rbp
  40067a:	48 89 e5             	mov    %rsp,%rbp
  40067d:	e8 6e ff ff ff       	callq  4005f0 <deregister_tm_clones>
  400682:	5d                   	pop    %rbp
  400683:	c6 05 d6 09 20 00 01 	movb   $0x1,0x2009d6(%rip)        # 601060 <__TMC_END__>
  40068a:	f3 c3                	repz retq 
  40068c:	0f 1f 40 00          	nopl   0x0(%rax)

0000000000400690 <frame_dummy>:
  400690:	bf 20 0e 60 00       	mov    $0x600e20,%edi
  400695:	48 83 3f 00          	cmpq   $0x0,(%rdi)
  400699:	75 05                	jne    4006a0 <frame_dummy+0x10>
  40069b:	eb 93                	jmp    400630 <register_tm_clones>
  40069d:	0f 1f 00             	nopl   (%rax)
  4006a0:	b8 00 00 00 00       	mov    $0x0,%eax
  4006a5:	48 85 c0             	test   %rax,%rax
  4006a8:	74 f1                	je     40069b <frame_dummy+0xb>
  4006aa:	55                   	push   %rbp
  4006ab:	48 89 e5             	mov    %rsp,%rbp
  4006ae:	ff d0                	callq  *%rax
  4006b0:	5d                   	pop    %rbp
  4006b1:	e9 7a ff ff ff       	jmpq   400630 <register_tm_clones>

00000000004006b6 <main>:
  4006b6:	55                   	push   %rbp
  4006b7:	48 89 e5             	mov    %rsp,%rbp
  4006ba:	53                   	push   %rbx
  4006bb:	48 81 ec f8 00 00 00 	sub    $0xf8,%rsp
  4006c2:	89 bd 0c ff ff ff    	mov    %edi,-0xf4(%rbp)
  4006c8:	48 89 b5 00 ff ff ff 	mov    %rsi,-0x100(%rbp)
  4006cf:	64 48 8b 04 25 28 00 	mov    %fs:0x28,%rax
  4006d6:	00 00 
  4006d8:	48 89 45 e8          	mov    %rax,-0x18(%rbp)
  4006dc:	31 c0                	xor    %eax,%eax
  4006de:	0f a2                	cpuid  
  4006e0:	0f 31                	rdtsc  
  4006e2:	89 d7                	mov    %edx,%edi
  4006e4:	89 c6                	mov    %eax,%esi
  4006e6:	89 bd 1c ff ff ff    	mov    %edi,-0xe4(%rbp)
  4006ec:	89 b5 20 ff ff ff    	mov    %esi,-0xe0(%rbp)
  4006f2:	48 8b 85 00 ff ff ff 	mov    -0x100(%rbp),%rax
  4006f9:	48 83 c0 08          	add    $0x8,%rax
  4006fd:	48 8b 00             	mov    (%rax),%rax
  400700:	be 00 00 00 00       	mov    $0x0,%esi
  400705:	48 89 c7             	mov    %rax,%rdi
  400708:	b8 00 00 00 00       	mov    $0x0,%eax
  40070d:	e8 8e fe ff ff       	callq  4005a0 <open@plt>
  400712:	89 85 24 ff ff ff    	mov    %eax,-0xdc(%rbp)
  400718:	83 bd 24 ff ff ff ff 	cmpl   $0xffffffff,-0xdc(%rbp)
  40071f:	75 14                	jne    400735 <main+0x7f>
  400721:	bf 28 0a 40 00       	mov    $0x400a28,%edi
  400726:	e8 15 fe ff ff       	callq  400540 <puts@plt>
  40072b:	b8 01 00 00 00       	mov    $0x1,%eax
  400730:	e9 20 02 00 00       	jmpq   400955 <main+0x29f>
  400735:	48 8b 85 00 ff ff ff 	mov    -0x100(%rbp),%rax
  40073c:	48 83 c0 08          	add    $0x8,%rax
  400740:	48 8b 00             	mov    (%rax),%rax
  400743:	48 8d 95 50 ff ff ff 	lea    -0xb0(%rbp),%rdx
  40074a:	48 89 d6             	mov    %rdx,%rsi
  40074d:	48 89 c7             	mov    %rax,%rdi
  400750:	e8 ab 02 00 00       	callq  400a00 <__stat>
  400755:	83 f8 ff             	cmp    $0xffffffff,%eax
  400758:	75 14                	jne    40076e <main+0xb8>
  40075a:	bf 3b 0a 40 00       	mov    $0x400a3b,%edi
  40075f:	e8 dc fd ff ff       	callq  400540 <puts@plt>
  400764:	b8 01 00 00 00       	mov    $0x1,%eax
  400769:	e9 e7 01 00 00       	jmpq   400955 <main+0x29f>
  40076e:	48 8b 45 80          	mov    -0x80(%rbp),%rax
  400772:	48 89 c6             	mov    %rax,%rsi
  400775:	bf 4f 0a 40 00       	mov    $0x400a4f,%edi
  40077a:	b8 00 00 00 00       	mov    $0x0,%eax
  40077f:	e8 ec fd ff ff       	callq  400570 <printf@plt>
  400784:	0f a2                	cpuid  
  400786:	0f 31                	rdtsc  
  400788:	89 d7                	mov    %edx,%edi
  40078a:	89 c6                	mov    %eax,%esi
  40078c:	89 bd 1c ff ff ff    	mov    %edi,-0xe4(%rbp)
  400792:	89 b5 20 ff ff ff    	mov    %esi,-0xe0(%rbp)
  400798:	48 8b 45 80          	mov    -0x80(%rbp),%rax
  40079c:	48 89 c6             	mov    %rax,%rsi
  40079f:	8b 85 24 ff ff ff    	mov    -0xdc(%rbp),%eax
  4007a5:	41 b9 00 00 00 00    	mov    $0x0,%r9d
  4007ab:	41 89 c0             	mov    %eax,%r8d
  4007ae:	b9 01 00 00 00       	mov    $0x1,%ecx
  4007b3:	ba 01 00 00 00       	mov    $0x1,%edx
  4007b8:	bf 00 00 00 00       	mov    $0x0,%edi
  4007bd:	e8 9e fd ff ff       	callq  400560 <mmap@plt>
  4007c2:	48 89 85 30 ff ff ff 	mov    %rax,-0xd0(%rbp)
  4007c9:	0f 01 f9             	rdtscp 
  4007cc:	89 d7                	mov    %edx,%edi
  4007ce:	89 c6                	mov    %eax,%esi
  4007d0:	0f a2                	cpuid  
  4007d2:	89 bd 28 ff ff ff    	mov    %edi,-0xd8(%rbp)
  4007d8:	89 b5 2c ff ff ff    	mov    %esi,-0xd4(%rbp)
  4007de:	8b 85 1c ff ff ff    	mov    -0xe4(%rbp),%eax
  4007e4:	48 c1 e0 20          	shl    $0x20,%rax
  4007e8:	48 89 c2             	mov    %rax,%rdx
  4007eb:	8b 85 20 ff ff ff    	mov    -0xe0(%rbp),%eax
  4007f1:	48 09 d0             	or     %rdx,%rax
  4007f4:	48 89 85 40 ff ff ff 	mov    %rax,-0xc0(%rbp)
  4007fb:	8b 85 28 ff ff ff    	mov    -0xd8(%rbp),%eax
  400801:	48 c1 e0 20          	shl    $0x20,%rax
  400805:	48 89 c2             	mov    %rax,%rdx
  400808:	8b 85 2c ff ff ff    	mov    -0xd4(%rbp),%eax
  40080e:	48 09 d0             	or     %rdx,%rax
  400811:	48 89 85 48 ff ff ff 	mov    %rax,-0xb8(%rbp)
  400818:	48 8b 85 48 ff ff ff 	mov    -0xb8(%rbp),%rax
  40081f:	48 2b 85 40 ff ff ff 	sub    -0xc0(%rbp),%rax
  400826:	48 89 c6             	mov    %rax,%rsi
  400829:	bf 5c 0a 40 00       	mov    $0x400a5c,%edi
  40082e:	b8 00 00 00 00       	mov    $0x0,%eax
  400833:	e8 38 fd ff ff       	callq  400570 <printf@plt>
  400838:	48 83 bd 30 ff ff ff 	cmpq   $0xffffffffffffffff,-0xd0(%rbp)
  40083f:	ff 
  400840:	75 14                	jne    400856 <main+0x1a0>
  400842:	bf 71 0a 40 00       	mov    $0x400a71,%edi
  400847:	e8 f4 fc ff ff       	callq  400540 <puts@plt>
  40084c:	b8 01 00 00 00       	mov    $0x1,%eax
  400851:	e9 ff 00 00 00       	jmpq   400955 <main+0x29f>
  400856:	48 c7 85 38 ff ff ff 	movq   $0x0,-0xc8(%rbp)
  40085d:	00 00 00 00 
  400861:	e9 c1 00 00 00       	jmpq   400927 <main+0x271>
  400866:	0f a2                	cpuid  
  400868:	0f 31                	rdtsc  
  40086a:	89 d7                	mov    %edx,%edi
  40086c:	89 c6                	mov    %eax,%esi
  40086e:	89 bd 1c ff ff ff    	mov    %edi,-0xe4(%rbp)
  400874:	89 b5 20 ff ff ff    	mov    %esi,-0xe0(%rbp)
  40087a:	48 8b 85 30 ff ff ff 	mov    -0xd0(%rbp),%rax
  400881:	0f b6 00             	movzbl (%rax),%eax
  400884:	88 85 1b ff ff ff    	mov    %al,-0xe5(%rbp)
  40088a:	0f 01 f9             	rdtscp 
  40088d:	89 d7                	mov    %edx,%edi
  40088f:	89 c6                	mov    %eax,%esi
  400891:	0f a2                	cpuid  
  400893:	89 bd 28 ff ff ff    	mov    %edi,-0xd8(%rbp)
  400899:	89 b5 2c ff ff ff    	mov    %esi,-0xd4(%rbp)
  40089f:	8b 85 1c ff ff ff    	mov    -0xe4(%rbp),%eax
  4008a5:	48 c1 e0 20          	shl    $0x20,%rax
  4008a9:	48 89 c2             	mov    %rax,%rdx
  4008ac:	8b 85 20 ff ff ff    	mov    -0xe0(%rbp),%eax
  4008b2:	48 09 d0             	or     %rdx,%rax
  4008b5:	48 89 85 40 ff ff ff 	mov    %rax,-0xc0(%rbp)
  4008bc:	8b 85 28 ff ff ff    	mov    -0xd8(%rbp),%eax
  4008c2:	48 c1 e0 20          	shl    $0x20,%rax
  4008c6:	48 89 c2             	mov    %rax,%rdx
  4008c9:	8b 85 2c ff ff ff    	mov    -0xd4(%rbp),%eax
  4008cf:	48 09 d0             	or     %rdx,%rax
  4008d2:	48 89 85 48 ff ff ff 	mov    %rax,-0xb8(%rbp)
  4008d9:	48 8b 85 48 ff ff ff 	mov    -0xb8(%rbp),%rax
  4008e0:	48 2b 85 40 ff ff ff 	sub    -0xc0(%rbp),%rax
  4008e7:	48 83 f8 64          	cmp    $0x64,%rax
  4008eb:	76 2a                	jbe    400917 <main+0x261>
  4008ed:	48 8b 85 48 ff ff ff 	mov    -0xb8(%rbp),%rax
  4008f4:	48 2b 85 40 ff ff ff 	sub    -0xc0(%rbp),%rax
  4008fb:	48 89 c2             	mov    %rax,%rdx
  4008fe:	48 8b 85 38 ff ff ff 	mov    -0xc8(%rbp),%rax
  400905:	48 89 c6             	mov    %rax,%rsi
  400908:	bf 7d 0a 40 00       	mov    $0x400a7d,%edi
  40090d:	b8 00 00 00 00       	mov    $0x0,%eax
  400912:	e8 59 fc ff ff       	callq  400570 <printf@plt>
  400917:	48 83 85 30 ff ff ff 	addq   $0x1,-0xd0(%rbp)
  40091e:	01 
  40091f:	48 83 85 38 ff ff ff 	addq   $0x1,-0xc8(%rbp)
  400926:	01 
  400927:	48 8b 45 80          	mov    -0x80(%rbp),%rax
  40092b:	48 3b 85 38 ff ff ff 	cmp    -0xc8(%rbp),%rax
  400932:	0f 87 2e ff ff ff    	ja     400866 <main+0x1b0>
  400938:	0f be 85 1b ff ff ff 	movsbl -0xe5(%rbp),%eax
  40093f:	89 c6                	mov    %eax,%esi
  400941:	bf 90 0a 40 00       	mov    $0x400a90,%edi
  400946:	b8 00 00 00 00       	mov    $0x0,%eax
  40094b:	e8 20 fc ff ff       	callq  400570 <printf@plt>
  400950:	b8 00 00 00 00       	mov    $0x0,%eax
  400955:	48 8b 5d e8          	mov    -0x18(%rbp),%rbx
  400959:	64 48 33 1c 25 28 00 	xor    %fs:0x28,%rbx
  400960:	00 00 
  400962:	74 05                	je     400969 <main+0x2b3>
  400964:	e8 e7 fb ff ff       	callq  400550 <__stack_chk_fail@plt>
  400969:	48 81 c4 f8 00 00 00 	add    $0xf8,%rsp
  400970:	5b                   	pop    %rbx
  400971:	5d                   	pop    %rbp
  400972:	c3                   	retq   
  400973:	66 2e 0f 1f 84 00 00 	nopw   %cs:0x0(%rax,%rax,1)
  40097a:	00 00 00 
  40097d:	0f 1f 00             	nopl   (%rax)

0000000000400980 <__libc_csu_init>:
  400980:	41 57                	push   %r15
  400982:	41 56                	push   %r14
  400984:	41 89 ff             	mov    %edi,%r15d
  400987:	41 55                	push   %r13
  400989:	41 54                	push   %r12
  40098b:	4c 8d 25 7e 04 20 00 	lea    0x20047e(%rip),%r12        # 600e10 <__frame_dummy_init_array_entry>
  400992:	55                   	push   %rbp
  400993:	48 8d 2d 7e 04 20 00 	lea    0x20047e(%rip),%rbp        # 600e18 <__init_array_end>
  40099a:	53                   	push   %rbx
  40099b:	49 89 f6             	mov    %rsi,%r14
  40099e:	49 89 d5             	mov    %rdx,%r13
  4009a1:	4c 29 e5             	sub    %r12,%rbp
  4009a4:	48 83 ec 08          	sub    $0x8,%rsp
  4009a8:	48 c1 fd 03          	sar    $0x3,%rbp
  4009ac:	e8 57 fb ff ff       	callq  400508 <_init>
  4009b1:	48 85 ed             	test   %rbp,%rbp
  4009b4:	74 20                	je     4009d6 <__libc_csu_init+0x56>
  4009b6:	31 db                	xor    %ebx,%ebx
  4009b8:	0f 1f 84 00 00 00 00 	nopl   0x0(%rax,%rax,1)
  4009bf:	00 
  4009c0:	4c 89 ea             	mov    %r13,%rdx
  4009c3:	4c 89 f6             	mov    %r14,%rsi
  4009c6:	44 89 ff             	mov    %r15d,%edi
  4009c9:	41 ff 14 dc          	callq  *(%r12,%rbx,8)
  4009cd:	48 83 c3 01          	add    $0x1,%rbx
  4009d1:	48 39 eb             	cmp    %rbp,%rbx
  4009d4:	75 ea                	jne    4009c0 <__libc_csu_init+0x40>
  4009d6:	48 83 c4 08          	add    $0x8,%rsp
  4009da:	5b                   	pop    %rbx
  4009db:	5d                   	pop    %rbp
  4009dc:	41 5c                	pop    %r12
  4009de:	41 5d                	pop    %r13
  4009e0:	41 5e                	pop    %r14
  4009e2:	41 5f                	pop    %r15
  4009e4:	c3                   	retq   
  4009e5:	90                   	nop
  4009e6:	66 2e 0f 1f 84 00 00 	nopw   %cs:0x0(%rax,%rax,1)
  4009ed:	00 00 00 

00000000004009f0 <__libc_csu_fini>:
  4009f0:	f3 c3                	repz retq 
  4009f2:	66 2e 0f 1f 84 00 00 	nopw   %cs:0x0(%rax,%rax,1)
  4009f9:	00 00 00 
  4009fc:	0f 1f 40 00          	nopl   0x0(%rax)

0000000000400a00 <__stat>:
  400a00:	48 89 f2             	mov    %rsi,%rdx
  400a03:	48 89 fe             	mov    %rdi,%rsi
  400a06:	bf 01 00 00 00       	mov    $0x1,%edi
  400a0b:	e9 80 fb ff ff       	jmpq   400590 <__xstat@plt>

Disassembly of section .fini:

0000000000400a10 <_fini>:
  400a10:	48 83 ec 08          	sub    $0x8,%rsp
  400a14:	48 83 c4 08          	add    $0x8,%rsp
  400a18:	c3                   	retq   
