
./obj/procedure_call:     file format elf64-x86-64


Disassembly of section .init:

0000000000400400 <_init>:
  400400:	48 83 ec 08          	sub    $0x8,%rsp
  400404:	48 8b 05 ed 0b 20 00 	mov    0x200bed(%rip),%rax        # 600ff8 <_DYNAMIC+0x1d0>
  40040b:	48 85 c0             	test   %rax,%rax
  40040e:	74 05                	je     400415 <_init+0x15>
  400410:	e8 4b 00 00 00       	callq  400460 <__libc_start_main@plt+0x10>
  400415:	48 83 c4 08          	add    $0x8,%rsp
  400419:	c3                   	retq   

Disassembly of section .plt:

0000000000400420 <puts@plt-0x10>:
  400420:	ff 35 e2 0b 20 00    	pushq  0x200be2(%rip)        # 601008 <_GLOBAL_OFFSET_TABLE_+0x8>
  400426:	ff 25 e4 0b 20 00    	jmpq   *0x200be4(%rip)        # 601010 <_GLOBAL_OFFSET_TABLE_+0x10>
  40042c:	0f 1f 40 00          	nopl   0x0(%rax)

0000000000400430 <puts@plt>:
  400430:	ff 25 e2 0b 20 00    	jmpq   *0x200be2(%rip)        # 601018 <_GLOBAL_OFFSET_TABLE_+0x18>
  400436:	68 00 00 00 00       	pushq  $0x0
  40043b:	e9 e0 ff ff ff       	jmpq   400420 <_init+0x20>

0000000000400440 <printf@plt>:
  400440:	ff 25 da 0b 20 00    	jmpq   *0x200bda(%rip)        # 601020 <_GLOBAL_OFFSET_TABLE_+0x20>
  400446:	68 01 00 00 00       	pushq  $0x1
  40044b:	e9 d0 ff ff ff       	jmpq   400420 <_init+0x20>

0000000000400450 <__libc_start_main@plt>:
  400450:	ff 25 d2 0b 20 00    	jmpq   *0x200bd2(%rip)        # 601028 <_GLOBAL_OFFSET_TABLE_+0x28>
  400456:	68 02 00 00 00       	pushq  $0x2
  40045b:	e9 c0 ff ff ff       	jmpq   400420 <_init+0x20>

Disassembly of section .plt.got:

0000000000400460 <.plt.got>:
  400460:	ff 25 92 0b 20 00    	jmpq   *0x200b92(%rip)        # 600ff8 <_DYNAMIC+0x1d0>
  400466:	66 90                	xchg   %ax,%ax

Disassembly of section .text:

0000000000400470 <_start>:
  400470:	31 ed                	xor    %ebp,%ebp
  400472:	49 89 d1             	mov    %rdx,%r9
  400475:	5e                   	pop    %rsi
  400476:	48 89 e2             	mov    %rsp,%rdx
  400479:	48 83 e4 f0          	and    $0xfffffffffffffff0,%rsp
  40047d:	50                   	push   %rax
  40047e:	54                   	push   %rsp
  40047f:	49 c7 c0 a0 0a 40 00 	mov    $0x400aa0,%r8
  400486:	48 c7 c1 30 0a 40 00 	mov    $0x400a30,%rcx
  40048d:	48 c7 c7 56 08 40 00 	mov    $0x400856,%rdi
  400494:	e8 b7 ff ff ff       	callq  400450 <__libc_start_main@plt>
  400499:	f4                   	hlt    
  40049a:	66 0f 1f 44 00 00    	nopw   0x0(%rax,%rax,1)

00000000004004a0 <deregister_tm_clones>:
  4004a0:	b8 47 10 60 00       	mov    $0x601047,%eax
  4004a5:	55                   	push   %rbp
  4004a6:	48 2d 40 10 60 00    	sub    $0x601040,%rax
  4004ac:	48 83 f8 0e          	cmp    $0xe,%rax
  4004b0:	48 89 e5             	mov    %rsp,%rbp
  4004b3:	76 1b                	jbe    4004d0 <deregister_tm_clones+0x30>
  4004b5:	b8 00 00 00 00       	mov    $0x0,%eax
  4004ba:	48 85 c0             	test   %rax,%rax
  4004bd:	74 11                	je     4004d0 <deregister_tm_clones+0x30>
  4004bf:	5d                   	pop    %rbp
  4004c0:	bf 40 10 60 00       	mov    $0x601040,%edi
  4004c5:	ff e0                	jmpq   *%rax
  4004c7:	66 0f 1f 84 00 00 00 	nopw   0x0(%rax,%rax,1)
  4004ce:	00 00 
  4004d0:	5d                   	pop    %rbp
  4004d1:	c3                   	retq   
  4004d2:	0f 1f 40 00          	nopl   0x0(%rax)
  4004d6:	66 2e 0f 1f 84 00 00 	nopw   %cs:0x0(%rax,%rax,1)
  4004dd:	00 00 00 

00000000004004e0 <register_tm_clones>:
  4004e0:	be 40 10 60 00       	mov    $0x601040,%esi
  4004e5:	55                   	push   %rbp
  4004e6:	48 81 ee 40 10 60 00 	sub    $0x601040,%rsi
  4004ed:	48 c1 fe 03          	sar    $0x3,%rsi
  4004f1:	48 89 e5             	mov    %rsp,%rbp
  4004f4:	48 89 f0             	mov    %rsi,%rax
  4004f7:	48 c1 e8 3f          	shr    $0x3f,%rax
  4004fb:	48 01 c6             	add    %rax,%rsi
  4004fe:	48 d1 fe             	sar    %rsi
  400501:	74 15                	je     400518 <register_tm_clones+0x38>
  400503:	b8 00 00 00 00       	mov    $0x0,%eax
  400508:	48 85 c0             	test   %rax,%rax
  40050b:	74 0b                	je     400518 <register_tm_clones+0x38>
  40050d:	5d                   	pop    %rbp
  40050e:	bf 40 10 60 00       	mov    $0x601040,%edi
  400513:	ff e0                	jmpq   *%rax
  400515:	0f 1f 00             	nopl   (%rax)
  400518:	5d                   	pop    %rbp
  400519:	c3                   	retq   
  40051a:	66 0f 1f 44 00 00    	nopw   0x0(%rax,%rax,1)

0000000000400520 <__do_global_dtors_aux>:
  400520:	80 3d 19 0b 20 00 00 	cmpb   $0x0,0x200b19(%rip)        # 601040 <__TMC_END__>
  400527:	75 11                	jne    40053a <__do_global_dtors_aux+0x1a>
  400529:	55                   	push   %rbp
  40052a:	48 89 e5             	mov    %rsp,%rbp
  40052d:	e8 6e ff ff ff       	callq  4004a0 <deregister_tm_clones>
  400532:	5d                   	pop    %rbp
  400533:	c6 05 06 0b 20 00 01 	movb   $0x1,0x200b06(%rip)        # 601040 <__TMC_END__>
  40053a:	f3 c3                	repz retq 
  40053c:	0f 1f 40 00          	nopl   0x0(%rax)

0000000000400540 <frame_dummy>:
  400540:	bf 20 0e 60 00       	mov    $0x600e20,%edi
  400545:	48 83 3f 00          	cmpq   $0x0,(%rdi)
  400549:	75 05                	jne    400550 <frame_dummy+0x10>
  40054b:	eb 93                	jmp    4004e0 <register_tm_clones>
  40054d:	0f 1f 00             	nopl   (%rax)
  400550:	b8 00 00 00 00       	mov    $0x0,%eax
  400555:	48 85 c0             	test   %rax,%rax
  400558:	74 f1                	je     40054b <frame_dummy+0xb>
  40055a:	55                   	push   %rbp
  40055b:	48 89 e5             	mov    %rsp,%rbp
  40055e:	ff d0                	callq  *%rax
  400560:	5d                   	pop    %rbp
  400561:	e9 7a ff ff ff       	jmpq   4004e0 <register_tm_clones>

0000000000400566 <call2>:
  400566:	55                   	push   %rbp
  400567:	48 89 e5             	mov    %rsp,%rbp
  40056a:	48 83 ec 20          	sub    $0x20,%rsp
  40056e:	89 7d ec             	mov    %edi,-0x14(%rbp)
  400571:	89 75 e8             	mov    %esi,-0x18(%rbp)
  400574:	bf b8 0a 40 00       	mov    $0x400ab8,%edi
  400579:	e8 b2 fe ff ff       	callq  400430 <puts@plt>
  40057e:	8b 55 ec             	mov    -0x14(%rbp),%edx
  400581:	8b 45 e8             	mov    -0x18(%rbp),%eax
  400584:	01 d0                	add    %edx,%eax
  400586:	89 c2                	mov    %eax,%edx
  400588:	c1 ea 1f             	shr    $0x1f,%edx
  40058b:	01 d0                	add    %edx,%eax
  40058d:	d1 f8                	sar    %eax
  40058f:	66 0f ef c0          	pxor   %xmm0,%xmm0
  400593:	f3 0f 2a c0          	cvtsi2ss %eax,%xmm0
  400597:	f3 0f 11 45 fc       	movss  %xmm0,-0x4(%rbp)
  40059c:	f3 0f 5a 45 fc       	cvtss2sd -0x4(%rbp),%xmm0
  4005a1:	bf d7 0a 40 00       	mov    $0x400ad7,%edi
  4005a6:	b8 01 00 00 00       	mov    $0x1,%eax
  4005ab:	e8 90 fe ff ff       	callq  400440 <printf@plt>
  4005b0:	90                   	nop
  4005b1:	c9                   	leaveq 
  4005b2:	c3                   	retq   

00000000004005b3 <call_func>:
  4005b3:	55                   	push   %rbp
  4005b4:	48 89 e5             	mov    %rsp,%rbp
  4005b7:	53                   	push   %rbx
  4005b8:	48 83 ec 38          	sub    $0x38,%rsp
  4005bc:	89 7d dc             	mov    %edi,-0x24(%rbp)
  4005bf:	89 75 d8             	mov    %esi,-0x28(%rbp)
  4005c2:	89 55 d4             	mov    %edx,-0x2c(%rbp)
  4005c5:	89 4d d0             	mov    %ecx,-0x30(%rbp)
  4005c8:	44 89 45 cc          	mov    %r8d,-0x34(%rbp)
  4005cc:	44 89 4d c8          	mov    %r9d,-0x38(%rbp)
  4005d0:	0f 01 f9             	rdtscp 
  4005d3:	89 d7                	mov    %edx,%edi
  4005d5:	89 c6                	mov    %eax,%esi
  4005d7:	0f a2                	cpuid  
  4005d9:	89 3d 69 0a 20 00    	mov    %edi,0x200a69(%rip)        # 601048 <cycles_high1>
  4005df:	89 35 7b 0a 20 00    	mov    %esi,0x200a7b(%rip)        # 601060 <cycles_low1>
  4005e5:	8b 05 89 0a 20 00    	mov    0x200a89(%rip),%eax        # 601074 <cycles_high0>
  4005eb:	89 c0                	mov    %eax,%eax
  4005ed:	48 c1 e0 20          	shl    $0x20,%rax
  4005f1:	8b 15 79 0a 20 00    	mov    0x200a79(%rip),%edx        # 601070 <cycles_low0>
  4005f7:	89 d2                	mov    %edx,%edx
  4005f9:	48 09 d0             	or     %rdx,%rax
  4005fc:	48 89 05 55 0a 20 00 	mov    %rax,0x200a55(%rip)        # 601058 <start>
  400603:	8b 05 3f 0a 20 00    	mov    0x200a3f(%rip),%eax        # 601048 <cycles_high1>
  400609:	89 c0                	mov    %eax,%eax
  40060b:	48 c1 e0 20          	shl    $0x20,%rax
  40060f:	8b 15 4b 0a 20 00    	mov    0x200a4b(%rip),%edx        # 601060 <cycles_low1>
  400615:	89 d2                	mov    %edx,%edx
  400617:	48 09 d0             	or     %rdx,%rax
  40061a:	48 89 05 2f 0a 20 00 	mov    %rax,0x200a2f(%rip)        # 601050 <end>
  400621:	48 8b 15 28 0a 20 00 	mov    0x200a28(%rip),%rdx        # 601050 <end>
  400628:	48 8b 05 29 0a 20 00 	mov    0x200a29(%rip),%rax        # 601058 <start>
  40062f:	48 29 c2             	sub    %rax,%rdx
  400632:	48 8b 05 3f 0a 20 00 	mov    0x200a3f(%rip),%rax        # 601078 <call_overhead>
  400639:	48 01 d0             	add    %rdx,%rax
  40063c:	48 89 05 35 0a 20 00 	mov    %rax,0x200a35(%rip)        # 601078 <call_overhead>
  400643:	8b 55 dc             	mov    -0x24(%rbp),%edx
  400646:	8b 45 cc             	mov    -0x34(%rbp),%eax
  400649:	01 c2                	add    %eax,%edx
  40064b:	8b 45 20             	mov    0x20(%rbp),%eax
  40064e:	01 c2                	add    %eax,%edx
  400650:	8b 45 40             	mov    0x40(%rbp),%eax
  400653:	01 c2                	add    %eax,%edx
  400655:	8b 45 60             	mov    0x60(%rbp),%eax
  400658:	01 c2                	add    %eax,%edx
  40065a:	8b 85 80 00 00 00    	mov    0x80(%rbp),%eax
  400660:	01 c2                	add    %eax,%edx
  400662:	8b 85 a0 00 00 00    	mov    0xa0(%rbp),%eax
  400668:	01 c2                	add    %eax,%edx
  40066a:	8b 85 c0 00 00 00    	mov    0xc0(%rbp),%eax
  400670:	01 d0                	add    %edx,%eax
  400672:	89 45 dc             	mov    %eax,-0x24(%rbp)
  400675:	8b 55 d8             	mov    -0x28(%rbp),%edx
  400678:	8b 45 10             	mov    0x10(%rbp),%eax
  40067b:	01 c2                	add    %eax,%edx
  40067d:	8b 45 28             	mov    0x28(%rbp),%eax
  400680:	01 c2                	add    %eax,%edx
  400682:	8b 45 48             	mov    0x48(%rbp),%eax
  400685:	01 c2                	add    %eax,%edx
  400687:	8b 45 68             	mov    0x68(%rbp),%eax
  40068a:	01 c2                	add    %eax,%edx
  40068c:	8b 85 88 00 00 00    	mov    0x88(%rbp),%eax
  400692:	01 c2                	add    %eax,%edx
  400694:	8b 85 a8 00 00 00    	mov    0xa8(%rbp),%eax
  40069a:	01 c2                	add    %eax,%edx
  40069c:	8b 85 c8 00 00 00    	mov    0xc8(%rbp),%eax
  4006a2:	01 d0                	add    %edx,%eax
  4006a4:	89 45 d8             	mov    %eax,-0x28(%rbp)
  4006a7:	8b 55 d4             	mov    -0x2c(%rbp),%edx
  4006aa:	8b 45 c8             	mov    -0x38(%rbp),%eax
  4006ad:	01 c2                	add    %eax,%edx
  4006af:	8b 45 30             	mov    0x30(%rbp),%eax
  4006b2:	01 c2                	add    %eax,%edx
  4006b4:	8b 45 50             	mov    0x50(%rbp),%eax
  4006b7:	01 c2                	add    %eax,%edx
  4006b9:	8b 45 70             	mov    0x70(%rbp),%eax
  4006bc:	01 c2                	add    %eax,%edx
  4006be:	8b 85 90 00 00 00    	mov    0x90(%rbp),%eax
  4006c4:	01 c2                	add    %eax,%edx
  4006c6:	8b 85 b0 00 00 00    	mov    0xb0(%rbp),%eax
  4006cc:	01 c2                	add    %eax,%edx
  4006ce:	8b 85 d0 00 00 00    	mov    0xd0(%rbp),%eax
  4006d4:	01 d0                	add    %edx,%eax
  4006d6:	89 45 d4             	mov    %eax,-0x2c(%rbp)
  4006d9:	8b 55 d0             	mov    -0x30(%rbp),%edx
  4006dc:	8b 45 18             	mov    0x18(%rbp),%eax
  4006df:	01 c2                	add    %eax,%edx
  4006e1:	8b 45 38             	mov    0x38(%rbp),%eax
  4006e4:	01 c2                	add    %eax,%edx
  4006e6:	8b 45 58             	mov    0x58(%rbp),%eax
  4006e9:	01 c2                	add    %eax,%edx
  4006eb:	8b 45 78             	mov    0x78(%rbp),%eax
  4006ee:	01 c2                	add    %eax,%edx
  4006f0:	8b 85 98 00 00 00    	mov    0x98(%rbp),%eax
  4006f6:	01 c2                	add    %eax,%edx
  4006f8:	8b 85 b8 00 00 00    	mov    0xb8(%rbp),%eax
  4006fe:	01 c2                	add    %eax,%edx
  400700:	8b 85 d8 00 00 00    	mov    0xd8(%rbp),%eax
  400706:	01 d0                	add    %edx,%eax
  400708:	89 45 d0             	mov    %eax,-0x30(%rbp)
  40070b:	8b 55 dc             	mov    -0x24(%rbp),%edx
  40070e:	8b 45 d8             	mov    -0x28(%rbp),%eax
  400711:	01 c2                	add    %eax,%edx
  400713:	8b 45 d4             	mov    -0x2c(%rbp),%eax
  400716:	01 c2                	add    %eax,%edx
  400718:	8b 45 d0             	mov    -0x30(%rbp),%eax
  40071b:	01 d0                	add    %edx,%eax
  40071d:	66 0f ef c0          	pxor   %xmm0,%xmm0
  400721:	f3 0f 2a c0          	cvtsi2ss %eax,%xmm0
  400725:	f3 0f 10 0d 27 04 00 	movss  0x427(%rip),%xmm1        # 400b54 <_IO_stdin_used+0xa4>
  40072c:	00 
  40072d:	f3 0f 5e c1          	divss  %xmm1,%xmm0
  400731:	f3 0f 11 45 ec       	movss  %xmm0,-0x14(%rbp)
  400736:	f3 0f 5a 45 ec       	cvtss2sd -0x14(%rbp),%xmm0
  40073b:	bf d7 0a 40 00       	mov    $0x400ad7,%edi
  400740:	b8 01 00 00 00       	mov    $0x1,%eax
  400745:	e8 f6 fc ff ff       	callq  400440 <printf@plt>
  40074a:	0f a2                	cpuid  
  40074c:	0f 31                	rdtsc  
  40074e:	89 d7                	mov    %edx,%edi
  400750:	89 c6                	mov    %eax,%esi
  400752:	89 3d 1c 09 20 00    	mov    %edi,0x20091c(%rip)        # 601074 <cycles_high0>
  400758:	89 35 12 09 20 00    	mov    %esi,0x200912(%rip)        # 601070 <cycles_low0>
  40075e:	90                   	nop
  40075f:	48 83 c4 38          	add    $0x38,%rsp
  400763:	5b                   	pop    %rbx
  400764:	5d                   	pop    %rbp
  400765:	c3                   	retq   

0000000000400766 <call8>:
  400766:	55                   	push   %rbp
  400767:	48 89 e5             	mov    %rsp,%rbp
  40076a:	53                   	push   %rbx
  40076b:	48 83 ec 38          	sub    $0x38,%rsp
  40076f:	89 7d dc             	mov    %edi,-0x24(%rbp)
  400772:	89 75 d8             	mov    %esi,-0x28(%rbp)
  400775:	89 55 d4             	mov    %edx,-0x2c(%rbp)
  400778:	89 4d d0             	mov    %ecx,-0x30(%rbp)
  40077b:	44 89 45 cc          	mov    %r8d,-0x34(%rbp)
  40077f:	44 89 4d c8          	mov    %r9d,-0x38(%rbp)
  400783:	0f a2                	cpuid  
  400785:	0f 31                	rdtsc  
  400787:	89 d7                	mov    %edx,%edi
  400789:	89 c6                	mov    %eax,%esi
  40078b:	89 3d e3 08 20 00    	mov    %edi,0x2008e3(%rip)        # 601074 <cycles_high0>
  400791:	89 35 d9 08 20 00    	mov    %esi,0x2008d9(%rip)        # 601070 <cycles_low0>
  400797:	8b 55 dc             	mov    -0x24(%rbp),%edx
  40079a:	8b 45 d8             	mov    -0x28(%rbp),%eax
  40079d:	01 c2                	add    %eax,%edx
  40079f:	8b 45 d4             	mov    -0x2c(%rbp),%eax
  4007a2:	01 c2                	add    %eax,%edx
  4007a4:	8b 45 d0             	mov    -0x30(%rbp),%eax
  4007a7:	01 c2                	add    %eax,%edx
  4007a9:	8b 45 cc             	mov    -0x34(%rbp),%eax
  4007ac:	01 c2                	add    %eax,%edx
  4007ae:	8b 45 c8             	mov    -0x38(%rbp),%eax
  4007b1:	01 c2                	add    %eax,%edx
  4007b3:	8b 45 10             	mov    0x10(%rbp),%eax
  4007b6:	01 c2                	add    %eax,%edx
  4007b8:	8b 45 18             	mov    0x18(%rbp),%eax
  4007bb:	01 d0                	add    %edx,%eax
  4007bd:	66 0f ef c0          	pxor   %xmm0,%xmm0
  4007c1:	f3 0f 2a c0          	cvtsi2ss %eax,%xmm0
  4007c5:	f3 0f 10 0d 8b 03 00 	movss  0x38b(%rip),%xmm1        # 400b58 <_IO_stdin_used+0xa8>
  4007cc:	00 
  4007cd:	f3 0f 5e c1          	divss  %xmm1,%xmm0
  4007d1:	f3 0f 11 45 ec       	movss  %xmm0,-0x14(%rbp)
  4007d6:	f3 0f 5a 45 ec       	cvtss2sd -0x14(%rbp),%xmm0
  4007db:	bf d7 0a 40 00       	mov    $0x400ad7,%edi
  4007e0:	b8 01 00 00 00       	mov    $0x1,%eax
  4007e5:	e8 56 fc ff ff       	callq  400440 <printf@plt>
  4007ea:	0f 01 f9             	rdtscp 
  4007ed:	89 d7                	mov    %edx,%edi
  4007ef:	89 c6                	mov    %eax,%esi
  4007f1:	0f a2                	cpuid  
  4007f3:	89 3d 4f 08 20 00    	mov    %edi,0x20084f(%rip)        # 601048 <cycles_high1>
  4007f9:	89 35 61 08 20 00    	mov    %esi,0x200861(%rip)        # 601060 <cycles_low1>
  4007ff:	8b 05 6f 08 20 00    	mov    0x20086f(%rip),%eax        # 601074 <cycles_high0>
  400805:	89 c0                	mov    %eax,%eax
  400807:	48 c1 e0 20          	shl    $0x20,%rax
  40080b:	8b 15 5f 08 20 00    	mov    0x20085f(%rip),%edx        # 601070 <cycles_low0>
  400811:	89 d2                	mov    %edx,%edx
  400813:	48 09 d0             	or     %rdx,%rax
  400816:	48 89 05 3b 08 20 00 	mov    %rax,0x20083b(%rip)        # 601058 <start>
  40081d:	8b 05 25 08 20 00    	mov    0x200825(%rip),%eax        # 601048 <cycles_high1>
  400823:	89 c0                	mov    %eax,%eax
  400825:	48 c1 e0 20          	shl    $0x20,%rax
  400829:	8b 15 31 08 20 00    	mov    0x200831(%rip),%edx        # 601060 <cycles_low1>
  40082f:	89 d2                	mov    %edx,%edx
  400831:	48 09 d0             	or     %rdx,%rax
  400834:	48 89 05 15 08 20 00 	mov    %rax,0x200815(%rip)        # 601050 <end>
  40083b:	48 8b 15 0e 08 20 00 	mov    0x20080e(%rip),%rdx        # 601050 <end>
  400842:	48 8b 05 0f 08 20 00 	mov    0x20080f(%rip),%rax        # 601058 <start>
  400849:	48 29 c2             	sub    %rax,%rdx
  40084c:	48 89 d0             	mov    %rdx,%rax
  40084f:	48 83 c4 38          	add    $0x38,%rsp
  400853:	5b                   	pop    %rbx
  400854:	5d                   	pop    %rbp
  400855:	c3                   	retq   

0000000000400856 <main>:
  400856:	55                   	push   %rbp
  400857:	48 89 e5             	mov    %rsp,%rbp
  40085a:	53                   	push   %rbx
  40085b:	48 83 ec 28          	sub    $0x28,%rsp
  40085f:	89 7d dc             	mov    %edi,-0x24(%rbp)
  400862:	48 89 75 d0          	mov    %rsi,-0x30(%rbp)
  400866:	48 c7 05 f7 07 20 00 	movq   $0x0,0x2007f7(%rip)        # 601068 <sum>
  40086d:	00 00 00 00 
  400871:	48 c7 05 fc 07 20 00 	movq   $0x0,0x2007fc(%rip)        # 601078 <call_overhead>
  400878:	00 00 00 00 
  40087c:	48 c7 05 01 08 20 00 	movq   $0x0,0x200801(%rip)        # 601088 <ret_overhead>
  400883:	00 00 00 00 
  400887:	c7 45 ec 00 00 00 00 	movl   $0x0,-0x14(%rbp)
  40088e:	e9 eb 00 00 00       	jmpq   40097e <main+0x128>
  400893:	0f a2                	cpuid  
  400895:	0f 31                	rdtsc  
  400897:	89 d7                	mov    %edx,%edi
  400899:	89 c6                	mov    %eax,%esi
  40089b:	89 3d d3 07 20 00    	mov    %edi,0x2007d3(%rip)        # 601074 <cycles_high0>
  4008a1:	89 35 c9 07 20 00    	mov    %esi,0x2007c9(%rip)        # 601070 <cycles_low0>
  4008a7:	6a 20                	pushq  $0x20
  4008a9:	6a 03                	pushq  $0x3
  4008ab:	6a 02                	pushq  $0x2
  4008ad:	6a 01                	pushq  $0x1
  4008af:	6a 05                	pushq  $0x5
  4008b1:	6a 04                	pushq  $0x4
  4008b3:	6a 03                	pushq  $0x3
  4008b5:	6a 02                	pushq  $0x2
  4008b7:	6a 18                	pushq  $0x18
  4008b9:	6a 17                	pushq  $0x17
  4008bb:	6a 16                	pushq  $0x16
  4008bd:	6a 15                	pushq  $0x15
  4008bf:	6a 04                	pushq  $0x4
  4008c1:	6a 03                	pushq  $0x3
  4008c3:	6a 02                	pushq  $0x2
  4008c5:	6a 01                	pushq  $0x1
  4008c7:	6a 08                	pushq  $0x8
  4008c9:	6a 07                	pushq  $0x7
  4008cb:	6a 06                	pushq  $0x6
  4008cd:	6a 05                	pushq  $0x5
  4008cf:	6a 04                	pushq  $0x4
  4008d1:	6a 03                	pushq  $0x3
  4008d3:	6a 02                	pushq  $0x2
  4008d5:	6a 01                	pushq  $0x1
  4008d7:	6a 09                	pushq  $0x9
  4008d9:	6a 08                	pushq  $0x8
  4008db:	41 b9 07 00 00 00    	mov    $0x7,%r9d
  4008e1:	41 b8 06 00 00 00    	mov    $0x6,%r8d
  4008e7:	b9 05 00 00 00       	mov    $0x5,%ecx
  4008ec:	ba 04 00 00 00       	mov    $0x4,%edx
  4008f1:	be 03 00 00 00       	mov    $0x3,%esi
  4008f6:	bf 02 00 00 00       	mov    $0x2,%edi
  4008fb:	e8 b3 fc ff ff       	callq  4005b3 <call_func>
  400900:	48 81 c4 d0 00 00 00 	add    $0xd0,%rsp
  400907:	0f 01 f9             	rdtscp 
  40090a:	89 d7                	mov    %edx,%edi
  40090c:	89 c6                	mov    %eax,%esi
  40090e:	0f a2                	cpuid  
  400910:	89 3d 32 07 20 00    	mov    %edi,0x200732(%rip)        # 601048 <cycles_high1>
  400916:	89 35 44 07 20 00    	mov    %esi,0x200744(%rip)        # 601060 <cycles_low1>
  40091c:	8b 05 52 07 20 00    	mov    0x200752(%rip),%eax        # 601074 <cycles_high0>
  400922:	89 c0                	mov    %eax,%eax
  400924:	48 c1 e0 20          	shl    $0x20,%rax
  400928:	8b 15 42 07 20 00    	mov    0x200742(%rip),%edx        # 601070 <cycles_low0>
  40092e:	89 d2                	mov    %edx,%edx
  400930:	48 09 d0             	or     %rdx,%rax
  400933:	48 89 05 1e 07 20 00 	mov    %rax,0x20071e(%rip)        # 601058 <start>
  40093a:	8b 05 08 07 20 00    	mov    0x200708(%rip),%eax        # 601048 <cycles_high1>
  400940:	89 c0                	mov    %eax,%eax
  400942:	48 c1 e0 20          	shl    $0x20,%rax
  400946:	8b 15 14 07 20 00    	mov    0x200714(%rip),%edx        # 601060 <cycles_low1>
  40094c:	89 d2                	mov    %edx,%edx
  40094e:	48 09 d0             	or     %rdx,%rax
  400951:	48 89 05 f8 06 20 00 	mov    %rax,0x2006f8(%rip)        # 601050 <end>
  400958:	48 8b 15 f1 06 20 00 	mov    0x2006f1(%rip),%rdx        # 601050 <end>
  40095f:	48 8b 05 f2 06 20 00 	mov    0x2006f2(%rip),%rax        # 601058 <start>
  400966:	48 29 c2             	sub    %rax,%rdx
  400969:	48 8b 05 18 07 20 00 	mov    0x200718(%rip),%rax        # 601088 <ret_overhead>
  400970:	48 01 d0             	add    %rdx,%rax
  400973:	48 89 05 0e 07 20 00 	mov    %rax,0x20070e(%rip)        # 601088 <ret_overhead>
  40097a:	83 45 ec 01          	addl   $0x1,-0x14(%rbp)
  40097e:	83 7d ec 63          	cmpl   $0x63,-0x14(%rbp)
  400982:	0f 8e 0b ff ff ff    	jle    400893 <main+0x3d>
  400988:	48 8b 05 e9 06 20 00 	mov    0x2006e9(%rip),%rax        # 601078 <call_overhead>
  40098f:	48 c1 e8 02          	shr    $0x2,%rax
  400993:	48 ba c3 f5 28 5c 8f 	movabs $0x28f5c28f5c28f5c3,%rdx
  40099a:	c2 f5 28 
  40099d:	48 f7 e2             	mul    %rdx
  4009a0:	48 89 d0             	mov    %rdx,%rax
  4009a3:	48 c1 e8 02          	shr    $0x2,%rax
  4009a7:	48 89 05 ca 06 20 00 	mov    %rax,0x2006ca(%rip)        # 601078 <call_overhead>
  4009ae:	48 8b 05 d3 06 20 00 	mov    0x2006d3(%rip),%rax        # 601088 <ret_overhead>
  4009b5:	48 c1 e8 02          	shr    $0x2,%rax
  4009b9:	48 ba c3 f5 28 5c 8f 	movabs $0x28f5c28f5c28f5c3,%rdx
  4009c0:	c2 f5 28 
  4009c3:	48 f7 e2             	mul    %rdx
  4009c6:	48 89 d0             	mov    %rdx,%rax
  4009c9:	48 c1 e8 02          	shr    $0x2,%rax
  4009cd:	48 89 05 b4 06 20 00 	mov    %rax,0x2006b4(%rip)        # 601088 <ret_overhead>
  4009d4:	48 8b 15 ad 06 20 00 	mov    0x2006ad(%rip),%rdx        # 601088 <ret_overhead>
  4009db:	48 8b 05 96 06 20 00 	mov    0x200696(%rip),%rax        # 601078 <call_overhead>
  4009e2:	48 89 c6             	mov    %rax,%rsi
  4009e5:	bf e8 0a 40 00       	mov    $0x400ae8,%edi
  4009ea:	b8 00 00 00 00       	mov    $0x0,%eax
  4009ef:	e8 4c fa ff ff       	callq  400440 <printf@plt>
  4009f4:	48 8b 15 7d 06 20 00 	mov    0x20067d(%rip),%rdx        # 601078 <call_overhead>
  4009fb:	48 8b 05 86 06 20 00 	mov    0x200686(%rip),%rax        # 601088 <ret_overhead>
  400a02:	48 01 d0             	add    %rdx,%rax
  400a05:	48 89 c6             	mov    %rax,%rsi
  400a08:	bf 10 0b 40 00       	mov    $0x400b10,%edi
  400a0d:	b8 00 00 00 00       	mov    $0x0,%eax
  400a12:	e8 29 fa ff ff       	callq  400440 <printf@plt>
  400a17:	b8 00 00 00 00       	mov    $0x0,%eax
  400a1c:	48 8b 5d f8          	mov    -0x8(%rbp),%rbx
  400a20:	c9                   	leaveq 
  400a21:	c3                   	retq   
  400a22:	66 2e 0f 1f 84 00 00 	nopw   %cs:0x0(%rax,%rax,1)
  400a29:	00 00 00 
  400a2c:	0f 1f 40 00          	nopl   0x0(%rax)

0000000000400a30 <__libc_csu_init>:
  400a30:	41 57                	push   %r15
  400a32:	41 56                	push   %r14
  400a34:	41 89 ff             	mov    %edi,%r15d
  400a37:	41 55                	push   %r13
  400a39:	41 54                	push   %r12
  400a3b:	4c 8d 25 ce 03 20 00 	lea    0x2003ce(%rip),%r12        # 600e10 <__frame_dummy_init_array_entry>
  400a42:	55                   	push   %rbp
  400a43:	48 8d 2d ce 03 20 00 	lea    0x2003ce(%rip),%rbp        # 600e18 <__init_array_end>
  400a4a:	53                   	push   %rbx
  400a4b:	49 89 f6             	mov    %rsi,%r14
  400a4e:	49 89 d5             	mov    %rdx,%r13
  400a51:	4c 29 e5             	sub    %r12,%rbp
  400a54:	48 83 ec 08          	sub    $0x8,%rsp
  400a58:	48 c1 fd 03          	sar    $0x3,%rbp
  400a5c:	e8 9f f9 ff ff       	callq  400400 <_init>
  400a61:	48 85 ed             	test   %rbp,%rbp
  400a64:	74 20                	je     400a86 <__libc_csu_init+0x56>
  400a66:	31 db                	xor    %ebx,%ebx
  400a68:	0f 1f 84 00 00 00 00 	nopl   0x0(%rax,%rax,1)
  400a6f:	00 
  400a70:	4c 89 ea             	mov    %r13,%rdx
  400a73:	4c 89 f6             	mov    %r14,%rsi
  400a76:	44 89 ff             	mov    %r15d,%edi
  400a79:	41 ff 14 dc          	callq  *(%r12,%rbx,8)
  400a7d:	48 83 c3 01          	add    $0x1,%rbx
  400a81:	48 39 eb             	cmp    %rbp,%rbx
  400a84:	75 ea                	jne    400a70 <__libc_csu_init+0x40>
  400a86:	48 83 c4 08          	add    $0x8,%rsp
  400a8a:	5b                   	pop    %rbx
  400a8b:	5d                   	pop    %rbp
  400a8c:	41 5c                	pop    %r12
  400a8e:	41 5d                	pop    %r13
  400a90:	41 5e                	pop    %r14
  400a92:	41 5f                	pop    %r15
  400a94:	c3                   	retq   
  400a95:	90                   	nop
  400a96:	66 2e 0f 1f 84 00 00 	nopw   %cs:0x0(%rax,%rax,1)
  400a9d:	00 00 00 

0000000000400aa0 <__libc_csu_fini>:
  400aa0:	f3 c3                	repz retq 

Disassembly of section .fini:

0000000000400aa4 <_fini>:
  400aa4:	48 83 ec 08          	sub    $0x8,%rsp
  400aa8:	48 83 c4 08          	add    $0x8,%rsp
  400aac:	c3                   	retq   
